(dp0
S's_fuh_measure_end_date'
p1
(lp2
I4
aI4
aI0
aI0
aI0
aF28.1081
aF0.0
aF0.0
aI0
aI0
aI0
aI0
aI0
aF0.0
aF0.2
aF0.8
aF0.2
asS's_flu_season_start_date'
p3
(lp4
I4
aI4
aI0
aI0
aI0
aF28.1081
aF0.0
aF0.0
aI0
aI0
aI0
aI0
aI0
aF0.0
aF0.2
aF0.8
aF0.2
asS's_tob_2_percentage'
p5
(lp6
I0
aI5
aI0
aI0
aI0
aF7.027
aF0.0
aF0.0
aF63.40384615384615
aF4.3825884729176146
aF0.2381
aF19.0
aF92.0
aI0
aI0
aI0
aI0
asS's_tob_1_measure_description'
p7
(lp8
I2
aI500
aI0
aI0
aI0
aF7378.3784
aF0.0
aF0.0
aI0
aI0
aI0
aI0
aI0
aF0.0952
aF0.0952
aF0.0
aF1.0
asS's_ehr_use_measure_description'
p9
(lp10
I2
aI500
aI0
aI0
aI0
aF14756.7568
aF0.0
aF0.0
aI0
aI0
aI0
aI0
aI0
aF0.1667
aF0.1667
aF0.0
aF1.0
asS's_sub_1_numerator'
p11
(lp12
I0
aI10
aI0
aI0
aI1
aF30.4054
aF0.0374
aF0.1413
aF11498.903846153846
aF2415764.457292615
aF0.9747
aF343.0
aF42520.0
aI0
aI0
aI0
aI0
asS's_ehr_certified_count'
p13
(lp14
I1
aI4
aI0
aI0
aI0
aF4.2162
aF0.0625
aF0.3333
aF11.0
aF2.027558887118798
aF0.8626
aF0.0
aF38.0
aI0
aI0
aI0
aI0
asS's_hbips_7_measure_description'
p15
(lp16
I2
aI500
aI0
aI0
aI0
aF34081.0811
aF0.0
aF0.0
aI0
aI0
aI0
aI0
aI0
aF0.134
aF0.1443
aF0.0
aF1.0
asS's_hbips_2_overall_rate_per_1000'
p17
(lp18
I0
aI500
aI0
aI0
aI0
aF351.3514
aF0.0
aF0.0
aF0.4423076923076923
aF0.009181554392353209
aF1.5622
aF0.0
aF3.0
aI0
aI0
aI0
aI0
asS's_ehr_certified_percentage'
p19
(lp20
I0
aI5
aI0
aI0
aI0
aF6.8919
aF0.0074
aF0.098
aF38.42307692307692
aF4.850847746927629
aF0.4134
aF0.0
aF80.0
aI0
aI0
aI0
aI0
asS's_ehr_paper_percentage'
p21
(lp22
I0
aI5
aI0
aI0
aI0
aF7.0946
aF0.0038
aF0.068
aF58.07692307692308
aF4.173702776513427
aF0.2537
aF20.0
aF100.0
aI0
aI0
aI0
aI0
asS's_flu_season_end_date'
p23
(lp24
I4
aI4
aI0
aI0
aI0
aF28.1081
aF0.0
aF0.0
aI0
aI0
aI0
aI0
aI0
aF0.0
aF0.2
aF0.8
aF0.2
asS's_hbips_3_overall_rate_per_1000'
p25
(lp26
I0
aI500
aI0
aI0
aI0
aF351.3514
aF0.0
aF0.0
aF0.5
aF0.029955621301775148
aF2.4962
aF0.0
aF7.0
aI0
aI0
aI0
aI0
asS's_tob_2a_percentage'
p27
(lp28
I0
aI5
aI0
aI0
aI0
aF7.027
aF0.0
aF0.0
aF32.09615384615385
aF2.4180914314974964
aF0.3494
aF12.0
aF61.0
aI0
aI0
aI0
aI0
asS's_tob_1_numerator'
p29
(lp30
I0
aI10
aI0
aI0
aI1
aF30.8108
aF0.0314
aF0.1277
aF12478.826923076924
aF3381094.4790836936
aF1.0626
aF335.0
aF66148.0
aI0
aI0
aI0
aI0
asS's_tob_2a_numerator'
p31
(lp32
I0
aI10
aI0
aI0
aI1
aF24.3243
aF0.0364
aF0.1743
aF1943.0576923076924
aF69643.70814605143
aF0.9794
aF51.0
aF7334.0
aI0
aI0
aI0
aI0
asS's_hbips_6_overall_den'
p33
(lp34
I0
aI10
aI0
aI0
aI1
aF31.7568
aF0.0288
aF0.1188
aF17408.30769230769
aF5841987.218593537
aF1.0012
aF836.0
aF69816.0
aI0
aI0
aI0
aI0
asS's_hbips_3_overall_den'
p35
(lp36
I0
aI10
aI0
aI0
aI1
aF41.8919
aF0.0345
aF0.0985
aF509240.0961538461
aF7376249733.677707
aF1.2162
aF27398.0
aF3513708.0
aI0
aI0
aI0
aI0
asS's_hbips_5_overall_num'
p37
(lp38
I0
aI10
aI0
aI0
aI1
aF20.9459
aF0.0442
aF0.223
aF604.5
aF9594.158653846154
aF1.1684
aF3.0
aF3380.0
aI0
aI0
aI0
aI0
asS'tob_2_2a_measure_desc'
p39
(lp40
I2
aI500
aI0
aI0
aI0
aF14878.3784
aF0.0152
aF0.0651
aI0
aI0
aI0
aI0
aI0
aF0.1226
aF0.1317
aF0.0
aF1.0
asS's_hbips_3_overall_num'
p41
(lp42
I0
aI10
aI0
aI0
aI1
aF26.7568
aF0.0578
aF0.1997
aF5960.557692307692
aF5772309.229595755
aF2.9066
aF66.0
aF125400.0
aI0
aI0
aI0
aI0
asS's_tob_2_2a_denominator'
p43
(lp44
I0
aI10
aI0
aI0
aI1
aF28.5135
aF0.0362
aF0.1483
aF6247.057692307692
aF831587.9906904302
aF1.0526
aF131.0
aF30346.0
aI0
aI0
aI0
aI0
asS's_fuh_measure_start_date'
p45
(lp46
I4
aI4
aI0
aI0
aI0
aF28.1081
aF0.0
aF0.0
aI0
aI0
aI0
aI0
aI0
aF0.0
aF0.2
aF0.8
aF0.2
asS's_hcp_denominator'
p47
(lp48
I0
aI10
aI0
aI0
aI1
aF39.0541
aF0.0285
aF0.0961
aF184292.61538461538
aF680824207.9498179
aF1.021
aF6497.0
aF929584.0
aI0
aI0
aI0
aI0
asS's_hie_no_percent'
p49
(lp50
I0
aI500
aI0
aI0
aI0
aF716.2162
aF0.0001
aF0.0943
aF64.3076923076923
aF3.8517296313154303
aF0.2201
aF29.0
aF100.0
aI0
aI0
aI0
aI0
asS's_peoc_measure_description'
p51
(lp52
I2
aI500
aI0
aI0
aI0
aF14054.0541
aF0.0
aF0.0
aI0
aI0
aI0
aI0
aI0
aF0.125
aF0.125
aF0.0
aF1.0
asS's_peoc_no_count'
p53
(lp54
I1
aI4
aI0
aI0
aI0
aF3.7297
aF0.055
aF0.3535
aF7.0
aF0.95211510013655
aF0.9504
aF0.0
aF25.0
aI0
aI0
aI0
aI0
asS's_hie_yes_count'
p55
(lp56
I1
aI4
aI0
aI0
aI0
aF4.0541
aF0.0617
aF0.3444
aF11.0
aF2.129629893035958
aF0.9228
aF0.0
aF44.0
aI0
aI0
aI0
aI0
asS's_imm_2_denominator'
p57
(lp58
I0
aI10
aI0
aI0
aI1
aF29.8649
aF0.0341
aF0.1375
aF9400.807692307691
aF2260936.349880519
aF1.1534
aF476.0
aF63462.0
aI0
aI0
aI0
aI0
asS's_fuh_7_percentage'
p59
(lp60
I0
aI5
aI0
aI0
aI0
aF7.027
aF0.0
aF0.0
aF30.78846153846154
aF1.1600122325898954
aF0.2523
aF17.0
aF49.0
aI0
aI0
aI0
aI0
asS's_tob_1_percentage'
p61
(lp62
I0
aI5
aI0
aI0
aI0
aF7.027
aF0.0
aF0.0
aF90.73076923076923
aF1.127304278561675
aF0.0844
aF64.0
aF99.0
aI0
aI0
aI0
aI0
asS's_imm_2_percentage'
p63
(lp64
I0
aI5
aI0
aI0
aI0
aF7.027
aF0.0
aF0.0
aF73.6923076923077
aF3.0551319981793355
aF0.171
aF32.0
aF95.0
aI0
aI0
aI0
aI0
asS'state'
p65
(lp66
I2
aI2
aI1
aI0
aI1
aF2.8108
aF0.0
aF0.0
aI0
aI0
aI0
aI0
aI0
aF0.0
aF0.0
aF0.0
aF1.0
asS's_hbips_2_overall_num'
p67
(lp68
I0
aI10
aI0
aI0
aI1
aF27.2973
aF0.0756
aF0.2238
aF8537.673076923076
aF6544535.7416576585
aF2.1607
aF53.0
aF126604.0
aI0
aI0
aI0
aI0
asS's_hbips_2_measure_description'
p69
(lp70
I2
aI500
aI0
aI0
aI0
aF10891.8919
aF0.0
aF0.0
aI0
aI0
aI0
aI0
aI0
aF0.0968
aF0.129
aF0.0
aF1.0
asS's_hbips_7_overall_percentage_of_total'
p71
(lp72
I0
aI5
aI0
aI0
aI0
aF7.027
aF0.0
aF0.0
aF81.13461538461539
aF2.4097846495220754
aF0.138
aF35.0
aF95.0
aI0
aI0
aI0
aI0
asS's_fuh_30_percentage'
p73
(lp74
I0
aI5
aI0
aI0
aI0
aF7.027
aF0.0
aF0.0
aF55.15384615384615
aF1.8198111060537097
aF0.1764
aF26.0
aF75.0
aI0
aI0
aI0
aI0
asS's_hbips_3_measure_description'
p75
(lp76
I2
aI500
aI0
aI0
aI0
aF6324.3243
aF0.0
aF0.0
aI0
aI0
aI0
aI0
aI0
aF0.1111
aF0.1111
aF0.0
aF1.0
asS's_hbips_5_overall_percentage_of_total'
p77
(lp78
I0
aI5
aI0
aI0
aI0
aF7.027
aF0.0
aF0.0
aF58.69230769230769
aF4.695664542558034
aF0.2662
aF21.0
aF90.0
aI0
aI0
aI0
aI0
asS's_hcp_measure_description'
p79
(lp80
I2
aI500
aI0
aI0
aI0
aF14756.7568
aF0.0
aF0.0
aI0
aI0
aI0
aI0
aI0
aF0.0714
aF0.0714
aF0.0
aF1.0
asS's_sub_1_measure_description'
p81
(lp82
I2
aI500
aI0
aI0
aI0
aF7378.3784
aF0.0
aF0.0
aI0
aI0
aI0
aI0
aI0
aF0.0952
aF0.0952
aF0.0
aF1.0
asS's_tob_2_2a__denominator'
p83
(lp84
I0
aI10
aI0
aI0
aI1
aF28.5135
aF0.0362
aF0.1483
aF6247.057692307692
aF831587.9906904302
aF1.0526
aF131.0
aF30346.0
aI0
aI0
aI0
aI0
asS's_fuh_7_numerator'
p85
(lp86
I0
aI10
aI0
aI0
aI1
aF22.8378
aF0.038
aF0.1896
aF1104.5576923076924
aF28129.86569043013
aF1.095
aF16.0
aF5019.0
aI0
aI0
aI0
aI0
asS's_hbips_2_overall_den'
p87
(lp88
I0
aI10
aI0
aI0
aI1
aF41.8919
aF0.0345
aF0.0985
aF520958.92307692306
aF7732630646.258022
aF1.2172
aF27398.0
aF3553770.0
aI0
aI0
aI0
aI0
asS'end_date'
p89
(lp90
I4
aI4
aI0
aI0
aI0
aF28.1081
aF0.0
aF0.0
aI0
aI0
aI0
aI0
aI0
aF0.0
aF0.2
aF0.8
aF0.2
asS's_peoc_no_percentage'
p91
(lp92
I0
aI5
aI0
aI0
aI0
aF6.4189
aF0.0286
aF0.2071
aF24.076923076923077
aF4.20402822030041
aF0.6141
aF0.0
aF52.0
aI0
aI0
aI0
aI0
asS's_fuh_30_numerator'
p93
(lp94
I0
aI10
aI0
aI0
aI1
aF24.7297
aF0.0327
aF0.1624
aF1933.423076923077
aF77661.04759330906
aF1.0394
aF36.0
aF7538.0
aI0
aI0
aI0
aI0
asS's_sub_1_denominator'
p95
(lp96
I0
aI10
aI0
aI0
aI1
aF30.8108
aF0.0352
aF0.1353
aF13187.5
aF3202346.7947485205
aF0.9785
aF412.0
aF49227.0
aI0
aI0
aI0
aI0
asS's_hbips_6_measure_description'
p97
(lp98
I2
aI500
aI0
aI0
aI0
aF15108.1081
aF0.0
aF0.0
aI0
aI0
aI0
aI0
aI0
aF0.093
aF0.1163
aF0.0
aF1.0
asS's_fuh_7_denominator'
p99
(lp100
I0
aI10
aI0
aI0
aI1
aF26.8919
aF0.0335
aF0.1513
aF3587.25
aF272990.75878328405
aF1.0503
aF59.0
aF15020.0
aI0
aI0
aI0
aI0
asS's_hbips_6_overall_num'
p101
(lp102
I0
aI10
aI0
aI0
aI1
aF31.7568
aF0.0288
aF0.1188
aF14725.673076923076
aF3909665.342989019
aF0.9683
aF801.0
aF58767.0
aI0
aI0
aI0
aI0
asS's_sub_1_percentage'
p103
(lp104
I0
aI5
aI0
aI0
aI0
aF7.027
aF0.0
aF0.0
aF87.25
aF1.6981323964497042
aF0.1077
aF56.0
aF99.0
aI0
aI0
aI0
aI0
asS's_hie_yes_percent'
p105
(lp106
I0
aI500
aI0
aI0
aI0
aF689.1892
aF0.0001
aF0.098
aF35.69230769230769
aF3.8517296313154303
aF0.3965
aF0.0
aF71.0
aI0
aI0
aI0
aI0
asS's_hcp_percentage'
p107
(lp108
I0
aI5
aI0
aI0
aI0
aF7.027
aF0.0
aF0.0
aF85.6923076923077
aF0.9870846609012289
aF0.0836
aF63.0
aF97.0
aI0
aI0
aI0
aI0
asS's_hbips_7_overall_den'
p109
(lp110
I0
aI10
aI0
aI0
aI1
aF31.7568
aF0.0288
aF0.1188
aF17375.19230769231
aF5819046.021478152
aF1.0011
aF836.0
aF69816.0
aI0
aI0
aI0
aI0
asS's_ehr_paper_count'
p111
(lp112
I1
aI4
aI0
aI0
aI0
aF4.3784
aF0.0617
aF0.3188
aF18.0
aF6.286157259899865
aF0.9692
aF1.0
aF81.0
aI0
aI0
aI0
aI0
asS's_hcp_numerator'
p113
(lp114
I0
aI10
aI0
aI0
aI1
aF38.6486
aF0.0288
aF0.0977
aF157559.40384615384
aF471464851.4461979
aF0.9938
aF4238.0
aF763090.0
aI0
aI0
aI0
aI0
asS's_fuh_measure_description'
p115
(lp116
I2
aI500
aI0
aI0
aI0
aF47081.0811
aF0.0
aF0.0
aI0
aI0
aI0
aI0
aI0
aF0.1418
aF0.194
aF0.0448
aF0.9552
asS's_tob_1_denominator'
p117
(lp118
I0
aI10
aI0
aI0
aI1
aF30.9459
aF0.0318
aF0.128
aF13663.096153846154
aF3981097.058623976
aF1.0531
aF409.0
aF70398.0
aI0
aI0
aI0
aI0
asS's_ehr_non_certified_percentage'
p119
(lp120
I0
aI5
aI0
aI0
aI0
aF3.8514
aF0.0174
aF0.2689
aF3.519230769230769
aF0.622404130632681
aF1.6166
aF0.0
aF33.0
aI0
aI0
aI0
aI0
asS's_peoc_yes_count'
p121
(lp122
I1
aI4
aI0
aI0
aI0
aF4.7568
aF0.0533
aF0.2727
aF23.0
aF9.451375455166136
aF0.9274
aF2.0
aF89.0
aI0
aI0
aI0
aI0
asS's_imm_2_numerator'
p123
(lp124
I0
aI10
aI0
aI0
aI1
aF28.6486
aF0.0379
aF0.1509
aF6647.403846153846
aF817322.5660204255
aF0.9807
aF294.0
aF27099.0
aI0
aI0
aI0
aI0
asS's_hbips_6_overall_percentage_of_total'
p125
(lp126
I0
aI5
aI0
aI0
aI0
aF7.027
aF0.0
aF0.0
aF87.67307692307692
aF1.972426888939463
aF0.1155
aF37.0
aF99.0
aI0
aI0
aI0
aI0
asS's_hbips_7_overall_num'
p127
(lp128
I0
aI10
aI0
aI0
aI1
aF31.6216
aF0.0288
aF0.1194
aF13680.884615384615
aF3372006.1365782884
aF0.9679
aF765.0
aF54400.0
aI0
aI0
aI0
aI0
asS'start_date'
p129
(lp130
I4
aI4
aI0
aI0
aI0
aF28.1081
aF0.0
aF0.0
aI0
aI0
aI0
aI0
aI0
aF0.0
aF0.2
aF0.8
aF0.2
asS's_hbips_5_overall_den'
p131
(lp132
I0
aI10
aI0
aI0
aI1
aF22.5676
aF0.0436
aF0.2056
aF1060.423076923077
aF33847.1215578061
aF1.2511
aF13.0
aF6332.0
aI0
aI0
aI0
aI0
asS's_imm_2_measure_description'
p133
(lp134
I2
aI500
aI0
aI0
aI0
aF7729.7297
aF0.0
aF0.0
aI0
aI0
aI0
aI0
aI0
aF0.0455
aF0.0455
aF0.0
aF1.0
asS's_hie_no_count'
p135
(lp136
I1
aI4
aI0
aI0
aI0
aF4.5405
aF0.0592
aF0.3012
aF19.0
aF6.415132851615841
aF0.9176
aF2.0
aF83.0
aI0
aI0
aI0
aI0
asS's_peoc_yes_percentage'
p137
(lp138
I0
aI5
aI0
aI0
aI0
aF7.4324
aF0.0204
aF0.151
aF75.92307692307692
aF4.20402822030041
aF0.1947
aF48.0
aF100.0
aI0
aI0
aI0
aI0
asS's_hbips_5_measure_description'
p139
(lp140
I2
aI500
aI0
aI0
aI0
aF30918.9189
aF0.0
aF0.0
aI0
aI0
aI0
aI0
aI0
aF0.0909
aF0.0909
aF0.0
aF1.0
asS's_fuh_30_denominator'
p141
(lp142
I0
aI10
aI0
aI0
aI1
aF26.8919
aF0.0335
aF0.1513
aF3587.25
aF272990.75878328405
aF1.0503
aF59.0
aF15020.0
aI0
aI0
aI0
aI0
asS's_tob_2_numerator'
p143
(lp144
I0
aI10
aI0
aI0
aI1
aF26.8919
aF0.0412
aF0.1678
aF3877.4615384615386
aF280293.34353664087
aF0.9846
aF94.0
aF13074.0
aI0
aI0
aI0
aI0
asS's_ehr_non_certified_count'
p145
(lp146
I1
aI4
aI0
aI0
aI0
aF2.8108
aF0.0
aF0.0
aF0.0
aF0.016919378698224852
aF1.2506
aF0.0
aF4.0
aI0
aI0
aI0
aI0
asS's_hie_measure_description'
p147
(lp148
I2
aI500
aI0
aI0
aI0
aF18270.2703
aF0.0
aF0.0
aI0
aI0
aI0
aI0
aI0
aF0.0962
aF0.0962
aF0.0
aF1.0
as.