(dp0
S'tr_hbips_6_overall_num'
p1
(lp2
I0
aI10
aI0
aI0
aI1
aF0.2965
aF0.0265
aF0.1737
aF465.6514598540146
aF148.34209382140776
aF1.0605
aF0.0
aF8420.0
aF0.0
aF0.0
aF0.0
aF0.0
asS'tr_hbips_7_overall_num'
p3
(lp4
I0
aI10
aI0
aI0
aI1
aF0.2927
aF0.029
aF0.1841
aF432.6192214111922
aF128.6384684381321
aF1.063
aF0.0
aF7028.0
aF0.0
aF0.0
aF0.0
aF0.0
asS'tr_hbips_3_overall_den'
p5
(lp6
I0
aI10
aI0
aI0
aI1
aF0.4325
aF0.0566
aF0.174
aF16106.537712895377
aF564055.4329807506
aF1.8906
aF0.0
aF559680.0
aF0.0
aF0.0
aF0.0
aF0.0
asS'tr_address'
p7
(lp8
I2
aI500
aI0
aI0
aI0
aF0.041
aF0.0597
aF0.2664
aF0.0
aF0.0
aF0.0
aF0.0
aF0.0
aF0.1818
aF0.1863
aF0.1906
aF0.8094
asS'tr_hcp_numerator'
p9
(lp10
I0
aI10
aI0
aI0
aI1
aF0.2443
aF0.0455
aF0.2761
aF267.985401459854
aF605.8907061768649
aF3.7242
aF0.0
aF29599.0
aF0.0
aF0.0
aF0.0
aF0.0
asS'tr_tob_1_percentage'
p11
(lp12
I0
aI5
aI0
aI0
aI0
aF0.2
aF0.0
aF0.0
aF0.9385644768856448
aF3.5073722392956666e-05
aF0.2558
aF0.0
aF1.0
aF0.0
aF0.0
aF0.0
aF0.0
asS'tr_hbips_6_overall_percentage_of_total'
p13
(lp14
I0
aI5
aI0
aI0
aI0
aF0.2
aF0.0
aF0.0
aF0.9251824817518248
aF4.210453601664182e-05
aF0.2844
aF0.0
aF1.0
aF0.0
aF0.0
aF0.0
aF0.0
asS'tr_flu_season_end_date'
p15
(lp16
I4
aI4
aI0
aI0
aI0
aF2.5
aF0.0
aF0.0
aF0.0
aF0.0
aF0.0
aF0.0
aF0.0
aF0.0
aF0.2
aF0.8
aF0.2
asS'tr_hbips_2_measure_description'
p17
(lp18
I2
aI500
aI0
aI0
aI0
aF0.062
aF0.0
aF0.0
aF0.0
aF0.0
aF0.0
aF0.0
aF0.0
aF0.0968
aF0.129
aF0.0
aF1.0
asS'tr_peoc_assessed_response'
p19
(lp20
I2
aI500
aI0
aI0
aI0
aF0.0058
aF0.0026
aF0.3984
aF0.0
aF0.0
aF0.0
aF0.0
aF0.0
aF0.0038
aF0.0038
aF0.0
aF1.0
asS'tr_hcp_percentage'
p21
(lp22
I0
aI5
aI0
aI0
aI0
aF0.41
aF0.0338
aF0.2006
aF74.84975669099757
aF0.4402760350632383
aF0.3594
aF0.0
aF100.0
aF0.0
aF0.0
aF0.0
aF0.0
asS'tr_sub_1_footnote'
p23
(lp24
I1
aI4
aI0
aI0
aI0
aF0.9658
aF0.098
aF0.162
aF0.0
aF0.0006289515153075992
aF5.5539
aF0.0
aF7.0
aF0.0
aF0.0
aF0.0
aF0.0
asS'tr_tob_2_percentage'
p25
(lp26
I0
aI5
aI0
aI0
aI0
aF0.2
aF0.0
aF0.0
aF0.628345498783455
aF0.00014204831687471178
aF0.7691
aF0.0
aF1.0
aF0.0
aF0.0
aF0.0
aF0.0
asS'tr_hie_footnote'
p27
(lp28
I1
aI4
aI0
aI0
aI0
aF0.9918
aF0.0244
aF0.0787
aF0.0
aF0.00016467497850353492
aF9.5044
aF0.0
aF5.0
aF0.0
aF0.0
aF0.0
aF0.0
asS'tr_hbips_2_overall_num'
p29
(lp30
I0
aI10
aI0
aI0
aI1
aF0.18
aF0.0722
aF0.4719
aF270.051703163017
aF6176.136408663381
aF11.7995
aF0.0
aF121752.0
aF0.0
aF0.0
aF0.0
aF0.0
asS'tr_hbips_2_overall_rate_per_1000'
p31
(lp32
I2
aI500
aI0
aI0
aI0
aF0.0062
aF0.0036
aF0.4301
aF0.0
aF0.0
aF0.0
aF0.0
aF0.0
aF0.0
aF0.2304
aF0.7696
aF0.2304
asS'tr_tob_2a_footnote'
p33
(lp34
I1
aI4
aI0
aI0
aI0
aF0.7956
aF0.4461
aF0.4197
aF0.0
aF0.0011405438073810717
aF2.6547
aF0.0
aF7.0
aF0.0
aF0.0
aF0.0
aF0.0
asS'tr_hcp_denominator'
p35
(lp36
I0
aI10
aI0
aI0
aI1
aF0.2533
aF0.0489
aF0.276
aF339.31934306569343
aF783.8612818066176
aF3.3455
aF0.0
aF33588.0
aF0.0
aF0.0
aF0.0
aF0.0
asS'tr_hcp_footnote'
p37
(lp38
I1
aI4
aI0
aI0
aI0
aF0.9562
aF0.1237
aF0.1839
aF0.0
aF0.0005360981884576662
aF4.7931
aF0.0
aF7.0
aF0.0
aF0.0
aF0.0
aF0.0
asS'tr_tob_2_footnote'
p39
(lp40
I1
aI4
aI0
aI0
aI0
aF0.8841
aF0.2939
aF0.3066
aF0.0
aF0.001134343908094731
aF3.4328
aF0.0
aF7.0
aF0.0
aF0.0
aF0.0
aF0.0
asS'tr_hbips_3_overall_rate_per_1000'
p41
(lp42
I2
aI500
aI0
aI0
aI0
aF0.0053
aF0.0043
aF0.5548
aF0.0
aF0.0
aF0.0
aF0.0
aF0.0
aF0.0
aF0.2119
aF0.7881
aF0.2119
asS'tr_fuh_measure_start_date'
p43
(lp44
I4
aI4
aI0
aI0
aI0
aF2.5
aF0.0
aF0.0
aF0.0
aF0.0
aF0.0
aF0.0
aF0.0
aF0.0
aF0.2
aF0.8
aF0.2
asS'tr_hbips_2_overall_footnote'
p45
(lp46
I1
aI4
aI0
aI0
aI0
aF0.9859
aF0.0416
aF0.1035
aF0.0
aF0.0004209546617704404
aF7.3136
aF0.0
aF7.0
aF0.0
aF0.0
aF0.0
aF0.0
asS'tr_hbips_5_measure_description'
p47
(lp48
I2
aI500
aI0
aI0
aI0
aF0.176
aF0.0
aF0.0
aF0.0
aF0.0
aF0.0
aF0.0
aF0.0
aF0.0909
aF0.0909
aF0.0
aF1.0
asS'tr_hbips_6_overall_den'
p49
(lp50
I0
aI10
aI0
aI0
aI1
aF0.3024
aF0.0241
aF0.1623
aF548.8126520681266
aF796.8160664958905
aF2.0855
aF0.0
aF41265.0
aF0.0
aF0.0
aF0.0
aF0.0
asS'tr_city'
p51
(lp52
I2
aI500
aI0
aI0
aI0
aF0.0175
aF0.0133
aF0.2935
aF0.0
aF0.0
aF0.0
aF0.0
aF0.0
aF0.0279
aF0.0281
aF0.0
aF1.0
asS'tr_imm_2_denominator'
p53
(lp54
I0
aI10
aI0
aI0
aI1
aF0.2763
aF0.0343
aF0.2119
aF290.4227493917275
aF381.98196316220776
aF2.7286
aF0.0
aF30200.0
aF0.0
aF0.0
aF0.0
aF0.0
asS'tr_tob_2_2a__denominator'
p55
(lp56
I0
aI10
aI0
aI0
aI1
aF0.2314
aF0.0789
aF0.3837
aF176.4221411192214
aF89.40087268385194
aF2.173
aF0.0
aF12800.0
aF0.0
aF0.0
aF0.0
aF0.0
asS'tr_hbips_5_overall_den'
p57
(lp58
I0
aI10
aI0
aI0
aI1
aF0.1484
aF0.0362
aF0.4054
aF26.765206812652067
aF4.619258917567119
aF3.2559
aF0.0
aF2200.0
aF0.0
aF0.0
aF0.0
aF0.0
asS'tr_imm_2_footnote'
p59
(lp60
I1
aI4
aI0
aI0
aI0
aF0.9562
aF0.1237
aF0.1839
aF0.0
aF0.0005660867241083959
aF5.322
aF0.0
aF7.0
aF0.0
aF0.0
aF0.0
aF0.0
asS'tr_end_date'
p61
(lp62
I4
aI4
aI0
aI0
aI0
aF2.5
aF0.0
aF0.0
aF0.0
aF0.0
aF0.0
aF0.0
aF0.0
aF0.0
aF0.2
aF0.8
aF0.2
asS'tr_tob_2a_numerator'
p63
(lp64
I0
aI10
aI0
aI0
aI1
aF0.1854
aF0.0538
aF0.3957
aF60.48844282238443
aF7.230756085838064
aF1.8025
aF0.0
aF1885.0
aF0.0
aF0.0
aF0.0
aF0.0
asS'tr_imm_2_numerator'
p65
(lp66
I0
aI10
aI0
aI0
aI1
aF0.2617
aF0.0435
aF0.2518
aF209.86800486618006
aF42.78916562959015
aF1.2638
aF0.0
aF6200.0
aF0.0
aF0.0
aF0.0
aF0.0
asS'tr_fuh_measure_end_date'
p67
(lp68
I4
aI4
aI0
aI0
aI0
aF2.5
aF0.0
aF0.0
aF0.0
aF0.0
aF0.0
aF0.0
aF0.0
aF0.0
aF0.2
aF0.8
aF0.2
asS'tr_ehr_use_footnote'
p69
(lp70
I1
aI4
aI0
aI0
aI0
aF0.9918
aF0.0244
aF0.0787
aF0.0
aF0.00016467497850353492
aF9.5044
aF0.0
aF5.0
aF0.0
aF0.0
aF0.0
aF0.0
asS'tr_hie_response'
p71
(lp72
I2
aI500
aI0
aI0
aI0
aF0.005
aF0.0029
aF0.4861
aF0.0
aF0.0
aF0.0
aF0.0
aF0.0
aF0.0044
aF0.0044
aF0.0
aF1.0
asS'tr_peoc_assessed_footnote'
p73
(lp74
I1
aI4
aI0
aI0
aI0
aF0.9918
aF0.0244
aF0.0787
aF0.0
aF0.00016467497850353492
aF9.5044
aF0.0
aF5.0
aF0.0
aF0.0
aF0.0
aF0.0
asS'tr_tob_2_numerator'
p75
(lp76
I0
aI10
aI0
aI0
aI1
aF0.2255
aF0.0583
aF0.3386
aF122.11496350364963
aF15.07946291161912
aF1.2894
aF0.0
aF1885.0
aF0.0
aF0.0
aF0.0
aF0.0
asS'tr_hbips_6_measure_description'
p77
(lp78
I2
aI500
aI0
aI0
aI0
aF0.086
aF0.0
aF0.0
aF0.0
aF0.0
aF0.0
aF0.0
aF0.0
aF0.093
aF0.1163
aF0.0
aF1.0
asS'tr_fuh_30_numerator'
p79
(lp80
I0
aI10
aI0
aI0
aI1
aF0.2004
aF0.0366
aF0.302
aF60.51338199513382
aF2.696769756867155
aF1.1003
aF0.0
aF563.0
aF0.0
aF0.0
aF0.0
aF0.0
asS'tr_fuh_7_numerator'
p81
(lp82
I0
aI10
aI0
aI0
aI1
aF0.1759
aF0.0319
aF0.3214
aF33.736009732360095
aF1.0911170858803243
aF1.2554
aF0.0
aF408.0
aF0.0
aF0.0
aF0.0
aF0.0
asS'tr_hcp_measure_description'
p83
(lp84
I2
aI500
aI0
aI0
aI0
aF0.084
aF0.0
aF0.0
aF0.0
aF0.0
aF0.0
aF0.0
aF0.0
aF0.0714
aF0.0714
aF0.0
aF1.0
asS'tr_tob_2a_percentage'
p85
(lp86
I0
aI5
aI0
aI0
aI0
aF0.2
aF0.0
aF0.0
aF0.24574209245742093
aF0.00011274508300004216
aF1.7519
aF0.0
aF1.0
aF0.0
aF0.0
aF0.0
aF0.0
asS'tr_imm_2_percentage'
p87
(lp88
I0
aI5
aI0
aI0
aI0
aF0.2
aF0.0
aF0.0
aF0.816301703163017
aF9.121242857431549e-05
aF0.4744
aF0.0
aF1.0
aF0.0
aF0.0
aF0.0
aF0.0
asS'tr_peoc_measure_description'
p89
(lp90
I2
aI500
aI0
aI0
aI0
aF0.08
aF0.0
aF0.0
aF0.0
aF0.0
aF0.0
aF0.0
aF0.0
aF0.125
aF0.125
aF0.0
aF1.0
asS'tr_provider_number'
p91
(lp92
I0
aI500
aI1
aI0
aI1
aF0.0117
aF0.0003
aF0.0618
aF261367.01824817518
aF12970967.367795246
aF0.5587
aF10007.0
aF670093.0
aF0.0
aF0.0
aF0.0
aF0.0
asS'tr_ehr_use_response'
p93
(lp94
I2
aI500
aI0
aI0
aI0
aF0.0421
aF0.0152
aF0.1311
aF0.0
aF0.0
aF0.0
aF0.0
aF0.0
aF0.1226
aF0.1237
aF0.0
aF1.0
asS'tr_fuh_7_denominator'
p95
(lp96
I0
aI10
aI0
aI0
aI1
aF0.2094
aF0.0694
aF0.3977
aF106.57968369829683
aF9.56375486227124
aF1.1765
aF0.0
aF933.0
aF0.0
aF0.0
aF0.0
aF0.0
asS'tr_fuh_30_footnote'
p97
(lp98
I1
aI4
aI0
aI0
aI0
aF0.865
aF0.3322
aF0.3332
aF0.0
aF0.0007887294556024987
aF2.9069
aF0.0
aF5.0
aF0.0
aF0.0
aF0.0
aF0.0
asS'tr_hbips_3_overall_footnote'
p99
(lp100
I1
aI4
aI0
aI0
aI0
aF0.984
aF0.0469
aF0.11
aF0.0
aF0.0004909405148731973
aF6.8696
aF0.0
aF7.0
aF0.0
aF0.0
aF0.0
aF0.0
asS'tr_sub_1_numerator'
p101
(lp102
I0
aI10
aI0
aI0
aI1
aF0.28
aF0.0338
aF0.2075
aF363.55474452554745
aF70.11384096448661
aF0.9339
aF0.0
aF5254.0
aF0.0
aF0.0
aF0.0
aF0.0
asS'tr_hbips_5_overall_percentage_of_total'
p103
(lp104
I0
aI5
aI0
aI0
aI0
aF0.2
aF0.0
aF0.0
aF0.3418491484184915
aF0.00013685420203408982
aF1.3875
aF0.0
aF1.0
aF0.0
aF0.0
aF0.0
aF0.0
asS'tr_hbips_6_overall_footnote'
p105
(lp106
I1
aI4
aI0
aI0
aI0
aF0.9849
aF0.0443
aF0.1068
aF0.0
aF0.00021336651366031815
aF8.322
aF0.0
aF7.0
aF0.0
aF0.0
aF0.0
aF0.0
asS'tr_zip_code'
p107
(lp108
I1
aI4
aI0
aI0
aI0
aF1.2251
aF0.0246
aF0.064
aF47561.0
aF464652.6111243608
aF0.5811
aF623.0
aF99801.0
aF0.0
aF0.0
aF0.0
aF0.0
asS'tr_tob_2_2a_measure_desc'
p109
(lp110
I2
aI500
aI0
aI0
aI0
aF0.096
aF0.0
aF0.0
aF0.0
aF0.0
aF0.0
aF0.0
aF0.0
aF0.125
aF0.1667
aF0.0
aF1.0
asS'tr_fuh_30_percentage'
p111
(lp112
I0
aI5
aI0
aI0
aI0
aF0.2
aF0.0
aF0.0
aF0.5486618004866181
aF0.00015062775497165485
aF0.907
aF0.0
aF1.0
aF0.0
aF0.0
aF0.0
aF0.0
asS'tr_sub_1_denominator'
p113
(lp114
I0
aI10
aI0
aI0
aI1
aF0.2871
aF0.0272
aF0.1816
aF412.99148418491484
aF96.8417388456655
aF0.9661
aF0.0
aF5538.0
aF0.0
aF0.0
aF0.0
aF0.0
asS'tr_fuh_measure_description'
p115
(lp116
I2
aI500
aI0
aI0
aI0
aF0.268
aF0.0
aF0.0
aF0.0
aF0.0
aF0.0
aF0.0
aF0.0
aF0.1418
aF0.194
aF0.0448
aF0.9552
asS'tr_tob_1_footnote'
p117
(lp118
I1
aI4
aI0
aI0
aI0
aF0.9735
aF0.0766
aF0.1421
aF0.0
aF0.0006078989097121964
aF5.9119
aF0.0
aF7.0
aF0.0
aF0.0
aF0.0
aF0.0
asS'tr_sub_1_measure_description'
p119
(lp120
I2
aI500
aI0
aI0
aI0
aF0.042
aF0.0
aF0.0
aF0.0
aF0.0
aF0.0
aF0.0
aF0.0
aF0.0952
aF0.0952
aF0.0
aF1.0
asS'tr_fuh_7_percentage'
p121
(lp122
I0
aI5
aI0
aI0
aI0
aF0.2
aF0.0
aF0.0
aF0.060218978102189784
aF3.4423754731458495e-05
aF3.9505
aF0.0
aF1.0
aF0.0
aF0.0
aF0.0
aF0.0
asS'tr_sub_1_percentage'
p123
(lp124
I0
aI5
aI0
aI0
aI0
aF0.2
aF0.0
aF0.0
aF0.8978102189781022
aF5.580719566702822e-05
aF0.3374
aF0.0
aF1.0
aF0.0
aF0.0
aF0.0
aF0.0
asS'tr_ehr_use_measure_description'
p125
(lp126
I2
aI500
aI0
aI0
aI0
aF0.068
aF0.0
aF0.0
aF0.0
aF0.0
aF0.0
aF0.0
aF0.0
aF0.1471
aF0.1471
aF0.0
aF1.0
asS'tr_hbips_3_measure_description'
p127
(lp128
I2
aI500
aI0
aI0
aI0
aF0.036
aF0.0
aF0.0
aF0.0
aF0.0
aF0.0
aF0.0
aF0.0
aF0.1111
aF0.1111
aF0.0
aF1.0
asS'tr_hbips_3_overall_num'
p129
(lp130
I0
aI10
aI0
aI0
aI1
aF0.1609
aF0.0653
aF0.5023
aF188.54744525547446
aF5707.830367930597
aF16.2467
aF0.0
aF121752.0
aF0.0
aF0.0
aF0.0
aF0.0
asS'tr_tob_1_numerator'
p131
(lp132
I0
aI10
aI0
aI0
aI1
aF0.2859
aF0.0259
aF0.1781
aF394.5839416058394
aF286.3727901711667
aF1.7389
aF0.0
aF24600.0
aF0.0
aF0.0
aF0.0
aF0.0
asS'tr_fuh_30_denominator'
p133
(lp134
I0
aI10
aI0
aI0
aI1
aF0.2221
aF0.0532
aF0.3285
aF111.61009732360097
aF9.056270043535303
aF1.0933
aF0.0
aF933.0
aF0.0
aF0.0
aF0.0
aF0.0
asS'tr_hbips_7_overall_footnote'
p135
(lp136
I1
aI4
aI0
aI0
aI0
aF0.9813
aF0.0547
aF0.1192
aF0.0
aF0.00021589076479998684
aF7.8354
aF0.0
aF7.0
aF0.0
aF0.0
aF0.0
aF0.0
asS'tr_hbips_7_measure_description'
p137
(lp138
I2
aI500
aI0
aI0
aI0
aF0.194
aF0.0
aF0.0
aF0.0
aF0.0
aF0.0
aF0.0
aF0.0
aF0.134
aF0.1443
aF0.0
aF1.0
asS'tr_hospital_name'
p139
(lp140
I2
aI500
aI0
aI0
aI0
aF0.0568
aF0.1392
aF0.2939
aF0.0
aF0.0
aF0.0
aF0.0
aF0.0
aF0.1
aF0.1057
aF0.0001
aF0.9999
asS'tr_hbips_2_overall_den'
p141
(lp142
I0
aI10
aI0
aI0
aI1
aF0.4336
aF0.0544
aF0.1701
aF16477.206204379563
aF609184.9546966839
aF1.9206
aF0.0
aF559680.0
aF0.0
aF0.0
aF0.0
aF0.0
asS'tr_hbips_7_overall_den'
p143
(lp144
I0
aI10
aI0
aI0
aI1
aF0.3014
aF0.0261
aF0.1694
aF546.9397810218978
aF798.009450067754
aF2.0942
aF0.0
aF41265.0
aF0.0
aF0.0
aF0.0
aF0.0
asS'tr_hbips_5_overall_num'
p145
(lp146
I0
aI10
aI0
aI0
aI1
aF0.1433
aF0.0297
aF0.38
aF16.973844282238442
aF1.1426901759195631
aF2.5535
aF0.0
aF700.0
aF0.0
aF0.0
aF0.0
aF0.0
asS'tr_tob_2_2a_denominator'
p147
(lp148
I0
aI10
aI0
aI0
aI1
aF0.2487
aF0.0589
aF0.3087
aF192.95620437956205
aF90.71861285997424
aF2.0014
aF0.0
aF12800.0
aF0.0
aF0.0
aF0.0
aF0.0
asS'tr_flu_season_start_date'
p149
(lp150
I4
aI4
aI0
aI0
aI0
aF2.5
aF0.0
aF0.0
aF0.0
aF0.0
aF0.0
aF0.0
aF0.0
aF0.0
aF0.2
aF0.8
aF0.2
asS'tr_country_name'
p151
(lp152
I2
aI500
aI0
aI0
aI0
aF0.0154
aF0.0145
aF0.3496
aF0.0
aF0.0
aF0.0
aF0.0
aF0.0
aF0.022
aF0.0225
aF0.0
aF1.0
asS'tr_tob_1_denominator'
p153
(lp154
I0
aI10
aI0
aI0
aI1
aF0.2894
aF0.0238
aF0.1686
aF431.7743309002433
aF316.70494612746637
aF1.6712
aF0.0
aF24700.0
aF0.0
aF0.0
aF0.0
aF0.0
asS'tr_tob_1_measure_description'
p155
(lp156
I2
aI500
aI0
aI0
aI0
aF0.042
aF0.0
aF0.0
aF0.0
aF0.0
aF0.0
aF0.0
aF0.0
aF0.0952
aF0.0952
aF0.0
aF1.0
asS'tr_start_date'
p157
(lp158
I4
aI4
aI0
aI0
aI0
aF2.5
aF0.0
aF0.0
aF0.0
aF0.0
aF0.0
aF0.0
aF0.0
aF0.0
aF0.2
aF0.8
aF0.2
asS'tr_hie_measure_description'
p159
(lp160
I2
aI500
aI0
aI0
aI0
aF0.104
aF0.0
aF0.0
aF0.0
aF0.0
aF0.0
aF0.0
aF0.0
aF0.0962
aF0.0962
aF0.0
aF1.0
asS'tr_hbips_5_overall_footnote'
p161
(lp162
I1
aI4
aI0
aI0
aI0
aF0.5716
aF0.5511
aF0.6493
aF0.0
aF0.0011587021663951491
aF1.655
aF0.0
aF7.0
aF0.0
aF0.0
aF0.0
aF0.0
asS'tr_state'
p163
(lp164
I2
aI2
aI0
aI0
aI0
aF1.0
aF0.0
aF0.0
aF0.0
aF0.0
aF0.0
aF0.0
aF0.0
aF0.0
aF0.0
aF0.0
aF1.0
asS'tr_imm_2_measure_description'
p165
(lp166
I2
aI500
aI0
aI0
aI0
aF0.044
aF0.0
aF0.0
aF0.0
aF0.0
aF0.0
aF0.0
aF0.0
aF0.0455
aF0.0455
aF0.0
aF1.0
asS'tr_fuh_7_footnote'
p167
(lp168
I1
aI4
aI0
aI0
aI0
aF0.7719
aF0.4762
aF0.447
aF0.0
aF0.0007957080557575316
aF2.2173
aF0.0
aF5.0
aF0.0
aF0.0
aF0.0
aF0.0
asS'tr_hbips_7_overall_percentage_of_total'
p169
(lp170
I0
aI5
aI0
aI0
aI0
aF0.2
aF0.0
aF0.0
aF0.8886861313868614
aF6.017219663474184e-05
aF0.3539
aF0.0
aF1.0
aF0.0
aF0.0
aF0.0
aF0.0
as.