(dp0
S'hcp_footnote'
p1
(lp2
I1
aI4
aI0
aI0
aI0
aF339.8919
aF0.1237
aF0.1839
aF0.0
aF0.0005360981884576662
aF4.7931
aF0.0
aF7.0
aI0
aI0
aI0
aI0
aI0
aI0
aI0
asS'hbips_6_overall_num'
p3
(lp4
I0
aI10
aI0
aI0
aI1
aF658.6486
aF0.0265
aF0.1737
aF465.6514598540146
aF148.34209382140776
aF1.0605
aF0.0
aF8420.0
aI0
aI0
aI0
aI0
aI0
aI0
aI0
asS'hbips_6_overall_percentage_of_total'
p5
(lp6
I0
aI5
aI0
aI0
aI0
aF111.0811
aF0.0
aF0.0
aF0.9251824817518248
aF4.210453601664182e-05
aF0.2844
aF0.0
aF1.0
aI0
aI0
aI0
aI0
aI0
aI0
aI0
asS'ehr_use_measure_description'
p7
(lp8
I2
aI500
aI0
aI0
aI0
aF377675.6757
aF0.0
aF0.0
aI0
aI0
aI0
aI0
aI0
aF0.1471
aF0.1471
aF0.0
aF1.0
aF0.0
aF0.0
aF0.0
asS'hbips_3_overall_den'
p9
(lp10
I0
aI10
aI0
aI0
aI1
aF960.8108
aF0.0566
aF0.174
aF16106.537712895377
aF564055.4329807506
aF1.8906
aF0.0
aF559680.0
aI0
aI0
aI0
aI0
aI0
aI0
aI0
asS'hbips_5_measure_description'
p11
(lp12
I2
aI500
aI0
aI0
aI0
aF977513.5135
aF0.0
aF0.0
aI0
aI0
aI0
aI0
aI0
aF0.0909
aF0.0909
aF0.0
aF1.0
aF0.0
aF0.0
aF0.0
asS'hbips_3_overall_num'
p13
(lp14
I0
aI10
aI0
aI0
aI1
aF357.4324
aF0.0653
aF0.5023
aF188.54744525547446
aF5707.830367930597
aF16.2467
aF0.0
aF121752.0
aI0
aI0
aI0
aI0
aI0
aI0
aI0
asS'hbips_7_overall_footnote'
p15
(lp16
I1
aI4
aI0
aI0
aI0
aF348.8108
aF0.0547
aF0.1192
aF0.0
aF0.00021589076479998684
aF7.8354
aF0.0
aF7.0
aI0
aI0
aI0
aI0
aI0
aI0
aI0
asS'hcp_percentage'
p17
(lp18
I0
aI5
aI0
aI0
aI0
aF227.7027
aF0.0338
aF0.2006
aF74.84975669099757
aF0.4402760350632383
aF0.3594
aF0.0
aF100.0
aI0
aI0
aI0
aI0
aI0
aI0
aI0
asS'hbips_7_overall_percentage_of_total'
p19
(lp20
I0
aI5
aI0
aI0
aI0
aF111.0811
aF0.0
aF0.0
aF0.8886861313868614
aF6.017219663474184e-05
aF0.3539
aF0.0
aF1.0
aI0
aI0
aI0
aI0
aI0
aI0
aI0
asS'imm_2_percentage'
p21
(lp22
I0
aI5
aI0
aI0
aI0
aF111.0811
aF0.0
aF0.0
aF0.816301703163017
aF9.121242857431549e-05
aF0.4744
aF0.0
aF1.0
aI0
aI0
aI0
aI0
aI0
aI0
aI0
asS'imm_2_denominator'
p23
(lp24
I0
aI10
aI0
aI0
aI1
aF613.7838
aF0.0343
aF0.2119
aF290.4227493917275
aF381.98196316220776
aF2.7286
aF0.0
aF30200.0
aI0
aI0
aI0
aI0
aI0
aI0
aI0
asS'tob_1_denominator'
p25
(lp26
I0
aI10
aI0
aI0
aI1
aF642.973
aF0.0238
aF0.1686
aF431.7743309002433
aF316.70494612746637
aF1.6712
aF0.0
aF24700.0
aI0
aI0
aI0
aI0
aI0
aI0
aI0
asS'hbips_6_overall_footnote'
p27
(lp28
I1
aI4
aI0
aI0
aI0
aF350.1081
aF0.0443
aF0.1068
aF0.0
aF0.00021336651366031815
aF8.322
aF0.0
aF7.0
aI0
aI0
aI0
aI0
aI0
aI0
aI0
asS'tob_2_2a_measure_desc'
p29
(lp30
I2
aI500
aI0
aI0
aI0
aF533189.1892
aF0.0
aF0.0
aI0
aI0
aI0
aI0
aI0
aF0.125
aF0.1667
aF0.0
aF1.0
aF0.0
aF0.0208
aF0.0
asS'hbips_3_overall_footnote'
p31
(lp32
I1
aI4
aI0
aI0
aI0
aF349.7838
aF0.0469
aF0.11
aF0.0
aF0.0004909405148731973
aF6.8696
aF0.0
aF7.0
aI0
aI0
aI0
aI0
aI0
aI0
aI0
asS'hospital_name'
p33
(lp34
I2
aI500
aI0
aI0
aI0
aF315324.3243
aF0.1392
aF0.2939
aI0
aI0
aI0
aI0
aI0
aF0.1
aF0.1057
aF0.0001
aF0.9999
aF0.0003
aF0.0001
aF0.002
asS'hbips_7_overall_num'
p35
(lp36
I0
aI10
aI0
aI0
aI1
aF650.2703
aF0.029
aF0.1841
aF432.6192214111922
aF128.6384684381321
aF1.063
aF0.0
aF7028.0
aI0
aI0
aI0
aI0
aI0
aI0
aI0
asS'imm_2_numerator'
p37
(lp38
I0
aI10
aI0
aI0
aI1
aF581.4865
aF0.0435
aF0.2518
aF209.86800486618006
aF42.78916562959015
aF1.2638
aF0.0
aF6200.0
aI0
aI0
aI0
aI0
aI0
aI0
aI0
asS'hbips_5_overall_footnote'
p39
(lp40
I1
aI4
aI0
aI0
aI0
aF203.1892
aF0.5511
aF0.6493
aF0.0
aF0.0011587021663951491
aF1.655
aF0.0
aF7.0
aI0
aI0
aI0
aI0
aI0
aI0
aI0
asS'hbips_2_overall_den'
p41
(lp42
I0
aI10
aI0
aI0
aI1
aF963.2432
aF0.0544
aF0.1701
aF16477.206204379563
aF609184.9546966839
aF1.9206
aF0.0
aF559680.0
aI0
aI0
aI0
aI0
aI0
aI0
aI0
asS'hbips_5_overall_percentage_of_total'
p43
(lp44
I0
aI5
aI0
aI0
aI0
aF111.0811
aF0.0
aF0.0
aF0.3418491484184915
aF0.00013685420203408982
aF1.3875
aF0.0
aF1.0
aI0
aI0
aI0
aI0
aI0
aI0
aI0
asS'tob_2_footnote'
p45
(lp46
I1
aI4
aI0
aI0
aI0
aF314.2703
aF0.2939
aF0.3066
aF0.0
aF0.001134343908094731
aF3.4328
aF0.0
aF7.0
aI0
aI0
aI0
aI0
aI0
aI0
aI0
asS'hbips_2_measure_description'
p47
(lp48
I2
aI500
aI0
aI0
aI0
aF344351.3514
aF0.0
aF0.0
aI0
aI0
aI0
aI0
aI0
aF0.0968
aF0.129
aF0.0
aF1.0
aF0.0
aF0.0
aF0.0323
asS'ehr_use_response'
p49
(lp50
I2
aI500
aI0
aI0
aI0
aF233608.1081
aF0.0152
aF0.1311
aI0
aI0
aI0
aI0
aI0
aF0.1226
aF0.1237
aF0.0
aF1.0
aF0.0
aF0.0
aF0.0011
asS'fuh_7_numerator'
p51
(lp52
I0
aI10
aI0
aI0
aI1
aF390.6757
aF0.0319
aF0.3214
aF33.736009732360095
aF1.0911170858803243
aF1.2554
aF0.0
aF408.0
aI0
aI0
aI0
aI0
aI0
aI0
aI0
asS'hbips_3_measure_description'
p53
(lp54
I2
aI500
aI0
aI0
aI0
aF199945.9459
aF0.0
aF0.0
aI0
aI0
aI0
aI0
aI0
aF0.1111
aF0.1111
aF0.0
aF1.0
aF0.0
aF0.0
aF0.0
asS'tob_2_2a_denominator'
p55
(lp56
I0
aI10
aI0
aI0
aI1
aF552.4324
aF0.0589
aF0.3087
aF192.95620437956205
aF90.71861285997424
aF2.0014
aF0.0
aF12800.0
aI0
aI0
aI0
aI0
aI0
aI0
aI0
asS'state'
p57
(lp58
I2
aI2
aI0
aI0
aI0
aF88.8649
aF0.0
aF0.0
aI0
aI0
aI0
aI0
aI0
aF0.0
aF0.0
aF0.0
aF1.0
aF0.0
aF0.0
aF0.0
asS'tob_2_numerator'
p59
(lp60
I0
aI10
aI0
aI0
aI1
aF500.9459
aF0.0583
aF0.3386
aF122.11496350364963
aF15.07946291161912
aF1.2894
aF0.0
aF1885.0
aI0
aI0
aI0
aI0
aI0
aI0
aI0
asS'hcp_measure_description'
p61
(lp62
I2
aI500
aI0
aI0
aI0
aF466540.5405
aF0.0
aF0.0
aI0
aI0
aI0
aI0
aI0
aF0.0714
aF0.0714
aF0.0
aF1.0
aF0.0
aF0.0
aF0.0
asS'sub_1_numerator'
p63
(lp64
I0
aI10
aI0
aI0
aI1
aF622.027
aF0.0338
aF0.2075
aF363.55474452554745
aF70.11384096448661
aF0.9339
aF0.0
aF5254.0
aI0
aI0
aI0
aI0
aI0
aI0
aI0
asS'country_name'
p65
(lp66
I2
aI500
aI0
aI0
aI0
aF85540.5405
aF0.0145
aF0.3496
aI0
aI0
aI0
aI0
aI0
aF0.022
aF0.0225
aF0.0
aF1.0
aF0.0
aF0.0
aF0.0005
asS'sub_1_measure_description'
p67
(lp68
I2
aI500
aI0
aI0
aI0
aF233270.2703
aF0.0
aF0.0
aI0
aI0
aI0
aI0
aI0
aF0.0952
aF0.0952
aF0.0
aF1.0
aF0.0
aF0.0
aF0.0
asS'tob_2_2a__denominator'
p69
(lp70
I0
aI10
aI0
aI0
aI1
aF514.1892
aF0.0789
aF0.3837
aF176.4221411192214
aF89.40087268385194
aF2.173
aF0.0
aF12800.0
aI0
aI0
aI0
aI0
aI0
aI0
aI0
asS'start_date'
p71
(lp72
I4
aI4
aI0
aI0
aI0
aF888.6486
aF0.0
aF0.0
aI0
aI0
aI0
aI0
aI0
aF0.0
aF0.2
aF0.8
aF0.2
aF0.2
aF0.0
aF0.0
asS'hbips_3_overall_rate_per_1000'
p73
(lp74
I2
aI500
aI0
aI0
aI0
aF29520.2703
aF0.0043
aF0.5548
aI0
aI0
aI0
aI0
aI0
aF0.0
aF0.2119
aF0.7881
aF0.2119
aF0.0
aF0.0
aF0.0
asS'zip_code'
p75
(lp76
I1
aI4
aI0
aI0
aI0
aF435.4595
aF0.0246
aF0.064
aF47561.0
aF464652.6111243608
aF0.5811
aF623.0
aF99801.0
aI0
aI0
aI0
aI0
aI0
aI0
aI0
asS'hie_response'
p77
(lp78
I2
aI500
aI0
aI0
aI0
aF27554.0541
aF0.0029
aF0.4861
aI0
aI0
aI0
aI0
aI0
aF0.0044
aF0.0044
aF0.0
aF1.0
aF0.0
aF0.0
aF0.0
asS'fuh_30_numerator'
p79
(lp80
I0
aI10
aI0
aI0
aI1
aF445.1351
aF0.0366
aF0.302
aF60.51338199513382
aF2.696769756867155
aF1.1003
aF0.0
aF563.0
aI0
aI0
aI0
aI0
aI0
aI0
aI0
asS'fuh_7_percentage'
p81
(lp82
I0
aI5
aI0
aI0
aI0
aF111.0811
aF0.0
aF0.0
aF0.060218978102189784
aF3.4423754731458495e-05
aF3.9505
aF0.0
aF1.0
aI0
aI0
aI0
aI0
aI0
aI0
aI0
asS'hcp_denominator'
p83
(lp84
I0
aI10
aI0
aI0
aI1
aF562.7027
aF0.0489
aF0.276
aF339.31934306569343
aF783.8612818066176
aF3.3455
aF0.0
aF33588.0
aI0
aI0
aI0
aI0
aI0
aI0
aI0
asS'fuh_measure_description'
p85
(lp86
I2
aI500
aI0
aI0
aI0
aF1488486.4865
aF0.0
aF0.0
aI0
aI0
aI0
aI0
aI0
aF0.1418
aF0.194
aF0.0448
aF0.9552
aF0.0
aF0.0149
aF0.0224
asS'end_date'
p87
(lp88
I4
aI4
aI0
aI0
aI0
aF888.6486
aF0.0
aF0.0
aI0
aI0
aI0
aI0
aI0
aF0.0
aF0.2
aF0.8
aF0.2
aF0.2
aF0.0
aF0.0
asS'city'
p89
(lp90
I2
aI500
aI0
aI0
aI0
aF97472.973
aF0.0133
aF0.2935
aI0
aI0
aI0
aI0
aI0
aF0.0279
aF0.0281
aF0.0
aF1.0
aF0.0
aF0.0
aF0.0001
asS'hbips_5_overall_num'
p91
(lp92
I0
aI10
aI0
aI0
aI1
aF318.3784
aF0.0297
aF0.38
aF16.973844282238442
aF1.1426901759195631
aF2.5535
aF0.0
aF700.0
aI0
aI0
aI0
aI0
aI0
aI0
aI0
asS'ehr_use_footnote'
p93
(lp94
I1
aI4
aI0
aI0
aI0
aF352.5405
aF0.0244
aF0.0787
aF0.0
aF0.00016467497850353492
aF9.5044
aF0.0
aF5.0
aI0
aI0
aI0
aI0
aI0
aI0
aI0
asS'tob_2_percentage'
p95
(lp96
I0
aI5
aI0
aI0
aI0
aF111.0811
aF0.0
aF0.0
aF0.628345498783455
aF0.00014204831687471178
aF0.7691
aF0.0
aF1.0
aI0
aI0
aI0
aI0
aI0
aI0
aI0
asS'tob_1_footnote'
p97
(lp98
I1
aI4
aI0
aI0
aI0
aF346.0541
aF0.0766
aF0.1421
aF0.0
aF0.0006078989097121964
aF5.9119
aF0.0
aF7.0
aI0
aI0
aI0
aI0
aI0
aI0
aI0
asS'hbips_6_measure_description'
p99
(lp100
I2
aI500
aI0
aI0
aI0
aF477648.6486
aF0.0
aF0.0
aI0
aI0
aI0
aI0
aI0
aF0.093
aF0.1163
aF0.0
aF1.0
aF0.0
aF0.0
aF0.0233
asS'imm_2_footnote'
p101
(lp102
I1
aI4
aI0
aI0
aI0
aF339.8919
aF0.1237
aF0.1839
aF0.0
aF0.0005660867241083959
aF5.322
aF0.0
aF7.0
aI0
aI0
aI0
aI0
aI0
aI0
aI0
asS'fuh_30_percentage'
p103
(lp104
I0
aI5
aI0
aI0
aI0
aF111.0811
aF0.0
aF0.0
aF0.5486618004866181
aF0.00015062775497165485
aF0.907
aF0.0
aF1.0
aI0
aI0
aI0
aI0
aI0
aI0
aI0
asS'tob_2a_numerator'
p105
(lp106
I0
aI10
aI0
aI0
aI1
aF411.8919
aF0.0538
aF0.3957
aF60.48844282238443
aF7.230756085838064
aF1.8025
aF0.0
aF1885.0
aI0
aI0
aI0
aI0
aI0
aI0
aI0
asS'tob_2a_footnote'
p107
(lp108
I1
aI4
aI0
aI0
aI0
aF282.8108
aF0.4461
aF0.4197
aF0.0
aF0.0011405438073810717
aF2.6547
aF0.0
aF7.0
aI0
aI0
aI0
aI0
aI0
aI0
aI0
asS'fuh_7_denominator'
p109
(lp110
I0
aI10
aI0
aI0
aI1
aF465.2703
aF0.0694
aF0.3977
aF106.57968369829683
aF9.56375486227124
aF1.1765
aF0.0
aF933.0
aI0
aI0
aI0
aI0
aI0
aI0
aI0
asS'hcp_numerator'
p111
(lp112
I0
aI10
aI0
aI0
aI1
aF542.7027
aF0.0455
aF0.2761
aF267.985401459854
aF605.8907061768649
aF3.7242
aF0.0
aF29599.0
aI0
aI0
aI0
aI0
aI0
aI0
aI0
asS'sub_1_percentage'
p113
(lp114
I0
aI5
aI0
aI0
aI0
aF111.0811
aF0.0
aF0.0
aF0.8978102189781022
aF5.580719566702822e-05
aF0.3374
aF0.0
aF1.0
aI0
aI0
aI0
aI0
aI0
aI0
aI0
asS'flu_season_start_date'
p115
(lp116
I4
aI4
aI0
aI0
aI0
aF888.6486
aF0.0
aF0.0
aI0
aI0
aI0
aI0
aI0
aF0.0
aF0.2
aF0.8
aF0.2
aF0.2
aF0.0
aF0.0
asS'address'
p117
(lp118
I2
aI500
aI0
aI0
aI0
aF227763.5135
aF0.0597
aF0.2664
aI0
aI0
aI0
aI0
aI0
aF0.1818
aF0.1863
aF0.1906
aF0.8094
aF0.0001
aF0.0001
aF0.0006
asS'fuh_measure_start_date'
p119
(lp120
I4
aI4
aI0
aI0
aI0
aF888.6486
aF0.0
aF0.0
aI0
aI0
aI0
aI0
aI0
aF0.0
aF0.2
aF0.8
aF0.2
aF0.2
aF0.0
aF0.0
asS'sub_1_footnote'
p121
(lp122
I1
aI4
aI0
aI0
aI0
aF343.2973
aF0.098
aF0.162
aF0.0
aF0.0006289515153075992
aF5.5539
aF0.0
aF7.0
aI0
aI0
aI0
aI0
aI0
aI0
aI0
asS'hie_measure_description'
p123
(lp124
I2
aI500
aI0
aI0
aI0
aF577621.6216
aF0.0
aF0.0
aI0
aI0
aI0
aI0
aI0
aF0.0962
aF0.0962
aF0.0
aF1.0
aF0.0
aF0.0
aF0.0
asS'fuh_measure_end_date'
p125
(lp126
I4
aI4
aI0
aI0
aI0
aF888.6486
aF0.0
aF0.0
aI0
aI0
aI0
aI0
aI0
aF0.0
aF0.2
aF0.8
aF0.2
aF0.2
aF0.0
aF0.0
asS'tob_1_percentage'
p127
(lp128
I0
aI5
aI0
aI0
aI0
aF111.0811
aF0.0
aF0.0
aF0.9385644768856448
aF3.5073722392956666e-05
aF0.2558
aF0.0
aF1.0
aI0
aI0
aI0
aI0
aI0
aI0
aI0
asS'peoc_measure_description'
p129
(lp130
I2
aI500
aI0
aI0
aI0
aF444324.3243
aF0.0
aF0.0
aI0
aI0
aI0
aI0
aI0
aF0.125
aF0.125
aF0.0
aF1.0
aF0.0
aF0.0
aF0.0
asS'flu_season_end_date'
p131
(lp132
I4
aI4
aI0
aI0
aI0
aF888.6486
aF0.0
aF0.0
aI0
aI0
aI0
aI0
aI0
aF0.0
aF0.2
aF0.8
aF0.2
aF0.2
aF0.0
aF0.0
asS'hbips_7_overall_den'
p133
(lp134
I0
aI10
aI0
aI0
aI1
aF669.5946
aF0.0261
aF0.1694
aF546.9397810218978
aF798.009450067754
aF2.0942
aF0.0
aF41265.0
aI0
aI0
aI0
aI0
aI0
aI0
aI0
asS'sub_1_denominator'
p135
(lp136
I0
aI10
aI0
aI0
aI1
aF637.8378
aF0.0272
aF0.1816
aF412.99148418491484
aF96.8417388456655
aF0.9661
aF0.0
aF5538.0
aI0
aI0
aI0
aI0
aI0
aI0
aI0
asS'hbips_6_overall_den'
p137
(lp138
I0
aI10
aI0
aI0
aI1
aF671.7568
aF0.0241
aF0.1623
aF548.8126520681266
aF796.8160664958905
aF2.0855
aF0.0
aF41265.0
aI0
aI0
aI0
aI0
aI0
aI0
aI0
asS'tob_1_numerator'
p139
(lp140
I0
aI10
aI0
aI0
aI1
aF635.2703
aF0.0259
aF0.1781
aF394.5839416058394
aF286.3727901711667
aF1.7389
aF0.0
aF24600.0
aI0
aI0
aI0
aI0
aI0
aI0
aI0
asS'imm_2_measure_description'
p141
(lp142
I2
aI500
aI0
aI0
aI0
aF244378.3784
aF0.0
aF0.0
aI0
aI0
aI0
aI0
aI0
aF0.0455
aF0.0455
aF0.0
aF1.0
aF0.0
aF0.0
aF0.0
asS'tob_1_measure_description'
p143
(lp144
I2
aI500
aI0
aI0
aI0
aF233270.2703
aF0.0
aF0.0
aI0
aI0
aI0
aI0
aI0
aF0.0952
aF0.0952
aF0.0
aF1.0
aF0.0
aF0.0
aF0.0
asS'hbips_5_overall_den'
p145
(lp146
I0
aI10
aI0
aI0
aI1
aF329.5946
aF0.0362
aF0.4054
aF26.765206812652067
aF4.619258917567119
aF3.2559
aF0.0
aF2200.0
aI0
aI0
aI0
aI0
aI0
aI0
aI0
asS'provider_number'
p147
(lp148
I0
aI500
aI1
aI0
aI1
aF64932.4324
aF0.0003
aF0.0618
aF261367.01824817518
aF12970967.367795246
aF0.5587
aF10007.0
aF670093.0
aI0
aI0
aI0
aI0
aI0
aI0
aI0
asS'hbips_2_overall_num'
p149
(lp150
I0
aI10
aI0
aI0
aI1
aF400.0
aF0.0722
aF0.4719
aF270.051703163017
aF6176.136408663381
aF11.7995
aF0.0
aF121752.0
aI0
aI0
aI0
aI0
aI0
aI0
aI0
asS'fuh_7_footnote'
p151
(lp152
I1
aI4
aI0
aI0
aI0
aF274.3784
aF0.4762
aF0.447
aF0.0
aF0.0007957080557575316
aF2.2173
aF0.0
aF5.0
aI0
aI0
aI0
aI0
aI0
aI0
aI0
asS'fuh_30_footnote'
p153
(lp154
I1
aI4
aI0
aI0
aI0
aF307.4595
aF0.3322
aF0.3332
aF0.0
aF0.0007887294556024987
aF2.9069
aF0.0
aF5.0
aI0
aI0
aI0
aI0
aI0
aI0
aI0
asS'hbips_2_overall_footnote'
p155
(lp156
I1
aI4
aI0
aI0
aI0
aF350.4324
aF0.0416
aF0.1035
aF0.0
aF0.0004209546617704404
aF7.3136
aF0.0
aF7.0
aI0
aI0
aI0
aI0
aI0
aI0
aI0
asS'hbips_2_overall_rate_per_1000'
p157
(lp158
I2
aI500
aI0
aI0
aI0
aF34668.9189
aF0.0036
aF0.4301
aI0
aI0
aI0
aI0
aI0
aF0.0
aF0.2304
aF0.7696
aF0.2304
aF0.0
aF0.0
aF0.0
asS'peoc_assessed_footnote'
p159
(lp160
I1
aI4
aI0
aI0
aI0
aF352.5405
aF0.0244
aF0.0787
aF0.0
aF0.00016467497850353492
aF9.5044
aF0.0
aF5.0
aI0
aI0
aI0
aI0
aI0
aI0
aI0
asS'hie_footnote'
p161
(lp162
I1
aI4
aI0
aI0
aI0
aF352.5405
aF0.0244
aF0.0787
aF0.0
aF0.00016467497850353492
aF9.5044
aF0.0
aF5.0
aI0
aI0
aI0
aI0
aI0
aI0
aI0
asS'hbips_7_measure_description'
p163
(lp164
I2
aI500
aI0
aI0
aI0
aF1077486.4865
aF0.0
aF0.0
aI0
aI0
aI0
aI0
aI0
aF0.134
aF0.1443
aF0.0
aF1.0
aF0.0
aF0.0
aF0.0103
asS'fuh_30_denominator'
p165
(lp166
I0
aI10
aI0
aI0
aI1
aF493.5135
aF0.0532
aF0.3285
aF111.61009732360097
aF9.056270043535303
aF1.0933
aF0.0
aF933.0
aI0
aI0
aI0
aI0
aI0
aI0
aI0
asS'peoc_assessed_response'
p167
(lp168
I2
aI500
aI0
aI0
aI0
aF31945.9459
aF0.0026
aF0.3984
aI0
aI0
aI0
aI0
aI0
aF0.0038
aF0.0038
aF0.0
aF1.0
aF0.0
aF0.0
aF0.0
asS'tob_2a_percentage'
p169
(lp170
I0
aI5
aI0
aI0
aI0
aF111.0811
aF0.0
aF0.0
aF0.24574209245742093
aF0.00011274508300004216
aF1.7519
aF0.0
aF1.0
aI0
aI0
aI0
aI0
aI0
aI0
aI0
as.