(dp0
S's_flu_season_start_date'
p1
(lp2
F1.0
aF0.008
aF0.0
acnumpy.core.multiarray
scalar
p3
(cnumpy
dtype
p4
(S'f8'
p5
I0
I1
tp6
Rp7
(I3
S'<'
p8
NNNI-1
I-1
I0
tp9
bS'\x00\x00\x00\x00\x00\x00\x00\x00'
p10
tp11
Rp12
aF0.0
aF0.0006
aF0.0
aF0.0
aF0.0
aF0.0
aF0.0
aF0.0
aF0.0
aF0.0
aF1.0
aF1.0
aF0.2
aF1.0
aF0.0
aF0.0
asS's_tob_2_percentage'
p13
(lp14
F0.0
aF0.01
aF0.0
ag3
(g7
S'\x00\x00\x00\x00\x00\x00\x00\x00'
p15
tp16
Rp17
aF0.0
aF0.0001
aF0.0
aF0.0
aF0.0001
aF0.0
aF0.0819
aF0.0007
aF0.0
aF0.0
aF0.0
aF0.0
aF0.0
aF0.0
aF0.0
aF0.0
asS's_tob_1_measure_description'
p18
(lp19
F0.5
aF1.0
aF0.0
ag3
(g7
S'\x00\x00\x00\x00\x00\x00\x00\x00'
p20
tp21
Rp22
aF0.0
aF0.1567
aF0.0
aF0.0
aF0.0
aF0.0
aF0.0
aF0.0
aF0.0
aF0.5711
aF0.476
aF0.0
aF1.0
aF0.0
aF0.0
aF0.0
asS's_sub_1_numerator'
p23
(lp24
F0.0
aF0.02
aF0.0
ag3
(g7
S'\x00\x00\x00\x00\x00\x00\x00\x00'
p25
tp26
Rp27
aF1.0
aF0.0006
aF0.4947
aF0.3997
aF0.0221
aF0.0003
aF0.3353
aF0.0125
aF0.012
aF0.0
aF0.0
aF0.0
aF0.0
aF0.0
aF0.0
aF0.0
asS's_hbips_7_measure_description'
p28
(lp29
F0.5
aF1.0
aF0.0
ag3
(g7
S'\x00\x00\x00\x00\x00\x00\x00\x00'
p30
tp31
Rp32
aF0.0
aF0.7239
aF0.0
aF0.0
aF0.0
aF0.0
aF0.0
aF0.0
aF0.0
aF0.8038
aF0.7215
aF0.0
aF1.0
aF0.0
aF0.0
aF0.3189
asS's_hbips_2_overall_rate_per_1000'
p33
(lp34
F0.0
aF1.0
aF0.0
ag3
(g7
S'\x00\x00\x00\x00\x00\x00\x00\x00'
p35
tp36
Rp37
aF0.0
aF0.0075
aF0.0
aF0.0
aF0.0
aF0.0
aF0.5375
aF0.0
aF0.0
aF0.0
aF0.0
aF0.0
aF0.0
aF0.0
aF0.0
aF0.0
asS's_ehr_certified_percentage'
p38
(lp39
F0.0
aF0.01
aF0.0
ag3
(g7
S'\x00\x00\x00\x00\x00\x00\x00\x00'
p40
tp41
Rp42
aF0.0
aF0.0001
aF0.0979
aF0.2772
aF0.0001
aF0.0
aF0.1422
aF0.0
aF0.0
aF0.0
aF0.0
aF0.0
aF0.0
aF0.0
aF0.0
aF0.0
asS's_tob_2_2a__denominator'
p43
(lp44
F0.0
aF0.02
aF0.0
ag3
(g7
S'\x00\x00\x00\x00\x00\x00\x00\x00'
p45
tp46
Rp47
aF1.0
aF0.0006
aF0.4788
aF0.4195
aF0.012
aF0.0001
aF0.3621
aF0.0048
aF0.0085
aF0.0
aF0.0
aF0.0
aF0.0
aF0.0
aF0.0
aF0.0
asS's_ehr_paper_percentage'
p48
(lp49
F0.0
aF0.01
aF0.0
ag3
(g7
S'\x00\x00\x00\x00\x00\x00\x00\x00'
p50
tp51
Rp52
aF0.0
aF0.0002
aF0.0503
aF0.1924
aF0.0001
aF0.0
aF0.0873
aF0.0007
aF0.0
aF0.0
aF0.0
aF0.0
aF0.0
aF0.0
aF0.0
aF0.0
asS's_flu_season_end_date'
p53
(lp54
F1.0
aF0.008
aF0.0
ag3
(g7
S'\x00\x00\x00\x00\x00\x00\x00\x00'
p55
tp56
Rp57
aF0.0
aF0.0006
aF0.0
aF0.0
aF0.0
aF0.0
aF0.0
aF0.0
aF0.0
aF0.0
aF1.0
aF1.0
aF0.2
aF1.0
aF0.0
aF0.0
asS's_hbips_3_overall_rate_per_1000'
p58
(lp59
F0.0
aF1.0
aF0.0
ag3
(g7
S'\x00\x00\x00\x00\x00\x00\x00\x00'
p60
tp61
Rp62
aF0.0
aF0.0075
aF0.0
aF0.0
aF0.0
aF0.0
aF0.8588
aF0.0
aF0.0
aF0.0
aF0.0
aF0.0
aF0.0
aF0.0
aF0.0
aF0.0
asS's_tob_2a_percentage'
p63
(lp64
F0.0
aF0.01
aF0.0
ag3
(g7
S'\x00\x00\x00\x00\x00\x00\x00\x00'
p65
tp66
Rp67
aF0.0
aF0.0001
aF0.0
aF0.0
aF0.0001
aF0.0
aF0.1202
aF0.0004
aF0.0
aF0.0
aF0.0
aF0.0
aF0.0
aF0.0
aF0.0
aF0.0
asS's_tob_1_numerator'
p68
(lp69
F0.0
aF0.02
aF0.0
ag3
(g7
S'\x00\x00\x00\x00\x00\x00\x00\x00'
p70
tp71
Rp72
aF1.0
aF0.0007
aF0.4153
aF0.3612
aF0.024
aF0.0004
aF0.3656
aF0.0122
aF0.0186
aF0.0
aF0.0
aF0.0
aF0.0
aF0.0
aF0.0
aF0.0
asS's_tob_2a_numerator'
p73
(lp74
F0.0
aF0.02
aF0.0
ag3
(g7
S'\x00\x00\x00\x00\x00\x00\x00\x00'
p75
tp76
Rp77
aF1.0
aF0.0005
aF0.4815
aF0.4931
aF0.0037
aF0.0
aF0.337
aF0.0019
aF0.0021
aF0.0
aF0.0
aF0.0
aF0.0
aF0.0
aF0.0
aF0.0
asS'tob_2_2a_measure_desc'
p78
(lp79
F0.5
aF1.0
aF0.0
ag3
(g7
S'\x00\x00\x00\x00\x00\x00\x00\x00'
p80
tp81
Rp82
aF0.0
aF0.316
aF0.2011
aF0.1842
aF0.0
aF0.0
aF0.0
aF0.0
aF0.0
aF0.7355
aF0.6585
aF0.0
aF1.0
aF0.0
aF0.302
aF0.0
asS's_hbips_3_overall_den'
p83
(lp84
F0.0
aF0.02
aF0.0
ag3
(g7
S'\x00\x00\x00\x00\x00\x00\x00\x00'
p85
tp86
Rp87
aF1.0
aF0.0009
aF0.4563
aF0.2786
aF0.9775
aF0.9539
aF0.4184
aF1.0
aF0.9887
aF0.0
aF0.0
aF0.0
aF0.0
aF0.0
aF0.0
aF0.0
asS's_hbips_5_overall_num'
p88
(lp89
F0.0
aF0.02
aF0.0
ag3
(g7
S'\x00\x00\x00\x00\x00\x00\x00\x00'
p90
tp91
Rp92
aF1.0
aF0.0004
aF0.5847
aF0.6308
aF0.0012
aF0.0
aF0.402
aF0.0001
aF0.001
aF0.0
aF0.0
aF0.0
aF0.0
aF0.0
aF0.0
aF0.0
asS's_ehr_certified_count'
p93
(lp94
F0.25
aF0.008
aF0.0
ag3
(g7
S'\x00\x00\x00\x00\x00\x00\x00\x00'
p95
tp96
Rp97
aF0.0
aF0.0001
aF0.8267
aF0.9429
aF0.0
aF0.0
aF0.2968
aF0.0
aF0.0
aF0.0
aF0.0
aF0.0
aF0.0
aF0.0
aF0.0
aF0.0
asS's_hbips_3_overall_num'
p98
(lp99
F0.0
aF0.02
aF0.0
ag3
(g7
S'\x00\x00\x00\x00\x00\x00\x00\x00'
p100
tp101
Rp102
aF1.0
aF0.0006
aF0.7646
aF0.5649
aF0.0114
aF0.0007
aF1.0
aF0.0024
aF0.0353
aF0.0
aF0.0
aF0.0
aF0.0
aF0.0
aF0.0
aF0.0
asS's_imm_2_percentage'
p103
(lp104
F0.0
aF0.01
aF0.0
ag3
(g7
S'\x00\x00\x00\x00\x00\x00\x00\x00'
p105
tp106
Rp107
aF0.0
aF0.0001
aF0.0
aF0.0
aF0.0001
aF0.0
aF0.0588
aF0.0012
aF0.0
aF0.0
aF0.0
aF0.0
aF0.0
aF0.0
aF0.0
aF0.0
asS's_fuh_measure_start_date'
p108
(lp109
F1.0
aF0.008
aF0.0
ag3
(g7
S'\x00\x00\x00\x00\x00\x00\x00\x00'
p110
tp111
Rp112
aF0.0
aF0.0006
aF0.0
aF0.0
aF0.0
aF0.0
aF0.0
aF0.0
aF0.0
aF0.0
aF1.0
aF1.0
aF0.2
aF1.0
aF0.0
aF0.0
asS's_hcp_denominator'
p113
(lp114
F0.0
aF0.02
aF0.0
ag3
(g7
S'\x00\x00\x00\x00\x00\x00\x00\x00'
p115
tp116
Rp117
aF1.0
aF0.0008
aF0.377
aF0.2719
aF0.3538
aF0.088
aF0.3513
aF0.2371
aF0.2616
aF0.0
aF0.0
aF0.0
aF0.0
aF0.0
aF0.0
aF0.0
asS's_hie_no_percent'
p118
(lp119
F0.0
aF1.0
aF0.0
ag3
(g7
S'\x00\x00\x00\x00\x00\x00\x00\x00'
p120
tp121
Rp122
aF0.0
aF0.0152
aF0.0013
aF0.2668
aF0.0001
aF0.0
aF0.0757
aF0.0011
aF0.0
aF0.0
aF0.0
aF0.0
aF0.0
aF0.0
aF0.0
aF0.0
asS's_peoc_measure_description'
p123
(lp124
F0.5
aF1.0
aF0.0
ag3
(g7
S'\x00\x00\x00\x00\x00\x00\x00\x00'
p125
tp126
Rp127
aF0.0
aF0.2985
aF0.0
aF0.0
aF0.0
aF0.0
aF0.0
aF0.0
aF0.0
aF0.7499
aF0.625
aF0.0
aF1.0
aF0.0
aF0.0
aF0.0
asS's_peoc_no_count'
p128
(lp129
F0.25
aF0.008
aF0.0
ag3
(g7
S'\x00\x00\x00\x00\x00\x00\x00\x00'
p130
tp131
Rp132
aF0.0
aF0.0001
aF0.7275
aF1.0
aF0.0
aF0.0
aF0.327
aF0.0
aF0.0
aF0.0
aF0.0
aF0.0
aF0.0
aF0.0
aF0.0
aF0.0
asS's_hbips_5_overall_den'
p133
(lp134
F0.0
aF0.02
aF0.0
ag3
(g7
S'\x00\x00\x00\x00\x00\x00\x00\x00'
p135
tp136
Rp137
aF1.0
aF0.0005
aF0.5767
aF0.5816
aF0.002
aF0.0
aF0.4304
aF0.0005
aF0.0018
aF0.0
aF0.0
aF0.0
aF0.0
aF0.0
aF0.0
aF0.0
asS's_hcp_numerator'
p138
(lp139
F0.0
aF0.02
aF0.0
ag3
(g7
S'\x00\x00\x00\x00\x00\x00\x00\x00'
p140
tp141
Rp142
aF1.0
aF0.0008
aF0.381
aF0.2764
aF0.3024
aF0.061
aF0.3419
aF0.1547
aF0.2147
aF0.0
aF0.0
aF0.0
aF0.0
aF0.0
aF0.0
aF0.0
asS's_imm_2_denominator'
p143
(lp144
F0.0
aF0.02
aF0.0
ag3
(g7
S'\x00\x00\x00\x00\x00\x00\x00\x00'
p145
tp146
Rp147
aF1.0
aF0.0006
aF0.4511
aF0.389
aF0.018
aF0.0003
aF0.3968
aF0.0174
aF0.0179
aF0.0
aF0.0
aF0.0
aF0.0
aF0.0
aF0.0
aF0.0
asS's_fuh_7_percentage'
p148
(lp149
F0.0
aF0.01
aF0.0
ag3
(g7
S'\x00\x00\x00\x00\x00\x00\x00\x00'
p150
tp151
Rp152
aF0.0
aF0.0001
aF0.0
aF0.0
aF0.0001
aF0.0
aF0.0868
aF0.0006
aF0.0
aF0.0
aF0.0
aF0.0
aF0.0
aF0.0
aF0.0
aF0.0
asS's_tob_1_percentage'
p153
(lp154
F0.0
aF0.01
aF0.0
ag3
(g7
S'\x00\x00\x00\x00\x00\x00\x00\x00'
p155
tp156
Rp157
aF0.0
aF0.0001
aF0.0
aF0.0
aF0.0002
aF0.0
aF0.029
aF0.0023
aF0.0
aF0.0
aF0.0
aF0.0
aF0.0
aF0.0
aF0.0
aF0.0
asS'state'
p158
(lp159
F0.5
aF0.004
aF1.0
ag3
(g7
S'\x00\x00\x00\x00\x00\x00\x00\x00'
p160
tp161
Rp162
aF1.0
aF0.0001
aF0.0
aF0.0
aF0.0
aF0.0
aF0.0
aF0.0
aF0.0
aF0.0
aF0.0
aF0.0
aF1.0
aF0.0
aF0.0
aF0.0
asS's_hbips_2_overall_num'
p163
(lp164
F0.0
aF0.02
aF0.0
ag3
(g7
S'\x00\x00\x00\x00\x00\x00\x00\x00'
p165
tp166
Rp167
aF1.0
aF0.0006
aF1.0
aF0.6331
aF0.0164
aF0.0008
aF0.7434
aF0.0019
aF0.0356
aF0.0
aF0.0
aF0.0
aF0.0
aF0.0
aF0.0
aF0.0
asS's_hbips_2_measure_description'
p168
(lp169
F0.5
aF1.0
aF0.0
ag3
(g7
S'\x00\x00\x00\x00\x00\x00\x00\x00'
p170
tp171
Rp172
aF0.0
aF0.2313
aF0.0
aF0.0
aF0.0
aF0.0
aF0.0
aF0.0
aF0.0
aF0.5807
aF0.645
aF0.0
aF1.0
aF0.0
aF0.0
aF1.0
asS's_hbips_7_overall_percentage_of_total'
p173
(lp174
F0.0
aF0.01
aF0.0
ag3
(g7
S'\x00\x00\x00\x00\x00\x00\x00\x00'
p175
tp176
Rp177
aF0.0
aF0.0001
aF0.0
aF0.0
aF0.0002
aF0.0
aF0.0475
aF0.0013
aF0.0
aF0.0
aF0.0
aF0.0
aF0.0
aF0.0
aF0.0
aF0.0
asS's_hcp_percentage'
p178
(lp179
F0.0
aF0.01
aF0.0
ag3
(g7
S'\x00\x00\x00\x00\x00\x00\x00\x00'
p180
tp181
Rp182
aF0.0
aF0.0001
aF0.0
aF0.0
aF0.0002
aF0.0
aF0.0288
aF0.0023
aF0.0
aF0.0
aF0.0
aF0.0
aF0.0
aF0.0
aF0.0
aF0.0
asS's_hbips_7_overall_den'
p183
(lp184
F0.0
aF0.02
aF0.0
ag3
(g7
S'\x00\x00\x00\x00\x00\x00\x00\x00'
p185
tp186
Rp187
aF1.0
aF0.0007
aF0.381
aF0.3361
aF0.0334
aF0.0008
aF0.3444
aF0.0305
aF0.0196
aF0.0
aF0.0
aF0.0
aF0.0
aF0.0
aF0.0
aF0.0
asS's_hbips_5_overall_percentage_of_total'
p188
(lp189
F0.0
aF0.01
aF0.0
ag3
(g7
S'\x00\x00\x00\x00\x00\x00\x00\x00'
p190
tp191
Rp192
aF0.0
aF0.0001
aF0.0
aF0.0
aF0.0001
aF0.0
aF0.0916
aF0.0008
aF0.0
aF0.0
aF0.0
aF0.0
aF0.0
aF0.0
aF0.0
aF0.0
asS's_hcp_measure_description'
p193
(lp194
F0.5
aF1.0
aF0.0
ag3
(g7
S'\x00\x00\x00\x00\x00\x00\x00\x00'
p195
tp196
Rp197
aF0.0
aF0.3134
aF0.0
aF0.0
aF0.0
aF0.0
aF0.0
aF0.0
aF0.0
aF0.4283
aF0.357
aF0.0
aF1.0
aF0.0
aF0.0
aF0.0
asS's_sub_1_measure_description'
p198
(lp199
F0.5
aF1.0
aF0.0
ag3
(g7
S'\x00\x00\x00\x00\x00\x00\x00\x00'
p200
tp201
Rp202
aF0.0
aF0.1567
aF0.0
aF0.0
aF0.0
aF0.0
aF0.0
aF0.0
aF0.0
aF0.5711
aF0.476
aF0.0
aF1.0
aF0.0
aF0.0
aF0.0
asS's_hie_yes_count'
p203
(lp204
F0.25
aF0.008
aF0.0
ag3
(g7
S'\x00\x00\x00\x00\x00\x00\x00\x00'
p205
tp206
Rp207
aF0.0
aF0.0001
aF0.8161
aF0.9743
aF0.0
aF0.0
aF0.3175
aF0.0
aF0.0
aF0.0
aF0.0
aF0.0
aF0.0
aF0.0
aF0.0
aF0.0
asS's_fuh_7_numerator'
p208
(lp209
F0.0
aF0.02
aF0.0
ag3
(g7
S'\x00\x00\x00\x00\x00\x00\x00\x00'
p210
tp211
Rp212
aF1.0
aF0.0005
aF0.5026
aF0.5364
aF0.0021
aF0.0
aF0.3767
aF0.0006
aF0.0014
aF0.0
aF0.0
aF0.0
aF0.0
aF0.0
aF0.0
aF0.0
asS's_hbips_2_overall_den'
p213
(lp214
F0.0
aF0.02
aF0.0
ag3
(g7
S'\x00\x00\x00\x00\x00\x00\x00\x00'
p215
tp216
Rp217
aF1.0
aF0.0009
aF0.4563
aF0.2786
aF1.0
aF1.0
aF0.4188
aF1.0
aF1.0
aF0.0
aF0.0
aF0.0
aF0.0
aF0.0
aF0.0
aF0.0
asS'end_date'
p218
(lp219
F1.0
aF0.008
aF0.0
ag3
(g7
S'\x00\x00\x00\x00\x00\x00\x00\x00'
p220
tp221
Rp222
aF0.0
aF0.0006
aF0.0
aF0.0
aF0.0
aF0.0
aF0.0
aF0.0
aF0.0
aF0.0
aF1.0
aF1.0
aF0.2
aF1.0
aF0.0
aF0.0
asS's_peoc_no_percentage'
p223
(lp224
F0.0
aF0.01
aF0.0
ag3
(g7
S'\x00\x00\x00\x00\x00\x00\x00\x00'
p225
tp226
Rp227
aF0.0
aF0.0001
aF0.3783
aF0.5859
aF0.0
aF0.0
aF0.2113
aF0.0
aF0.0
aF0.0
aF0.0
aF0.0
aF0.0
aF0.0
aF0.0
aF0.0
asS's_peoc_yes_count'
p228
(lp229
F0.25
aF0.008
aF0.0
ag3
(g7
S'\x00\x00\x00\x00\x00\x00\x00\x00'
p230
tp231
Rp232
aF0.0
aF0.0001
aF0.705
aF0.7714
aF0.0
aF0.0
aF0.3191
aF0.0001
aF0.0
aF0.0
aF0.0
aF0.0
aF0.0
aF0.0
aF0.0
aF0.0
asS's_fuh_30_numerator'
p233
(lp234
F0.0
aF0.02
aF0.0
ag3
(g7
S'\x00\x00\x00\x00\x00\x00\x00\x00'
p235
tp236
Rp237
aF1.0
aF0.0005
aF0.4325
aF0.4594
aF0.0037
aF0.0
aF0.3576
aF0.0013
aF0.0021
aF0.0
aF0.0
aF0.0
aF0.0
aF0.0
aF0.0
aF0.0
asS's_sub_1_denominator'
p238
(lp239
F0.0
aF0.02
aF0.0
ag3
(g7
S'\x00\x00\x00\x00\x00\x00\x00\x00'
p240
tp241
Rp242
aF1.0
aF0.0007
aF0.4656
aF0.3827
aF0.0253
aF0.0004
aF0.3366
aF0.015
aF0.0139
aF0.0
aF0.0
aF0.0
aF0.0
aF0.0
aF0.0
aF0.0
asS's_ehr_use_measure_description'
p243
(lp244
F0.5
aF1.0
aF0.0
ag3
(g7
S'\x00\x00\x00\x00\x00\x00\x00\x00'
p245
tp246
Rp247
aF0.0
aF0.3134
aF0.0
aF0.0
aF0.0
aF0.0
aF0.0
aF0.0
aF0.0
aF1.0
aF0.8335
aF0.0
aF1.0
aF0.0
aF0.0
aF0.0
asS's_hbips_6_overall_num'
p248
(lp249
F0.0
aF0.02
aF0.0
ag3
(g7
S'\x00\x00\x00\x00\x00\x00\x00\x00'
p250
tp251
Rp252
aF1.0
aF0.0007
aF0.381
aF0.3361
aF0.0283
aF0.0005
aF0.3331
aF0.0292
aF0.0165
aF0.0
aF0.0
aF0.0
aF0.0
aF0.0
aF0.0
aF0.0
asS's_sub_1_percentage'
p253
(lp254
F0.0
aF0.01
aF0.0
ag3
(g7
S'\x00\x00\x00\x00\x00\x00\x00\x00'
p255
tp256
Rp257
aF0.0
aF0.0001
aF0.0
aF0.0
aF0.0002
aF0.0
aF0.0371
aF0.002
aF0.0
aF0.0
aF0.0
aF0.0
aF0.0
aF0.0
aF0.0
aF0.0
asS's_hbips_6_overall_den'
p258
(lp259
F0.0
aF0.02
aF0.0
ag3
(g7
S'\x00\x00\x00\x00\x00\x00\x00\x00'
p260
tp261
Rp262
aF1.0
aF0.0007
aF0.381
aF0.3361
aF0.0334
aF0.0008
aF0.3445
aF0.0305
aF0.0196
aF0.0
aF0.0
aF0.0
aF0.0
aF0.0
aF0.0
aF0.0
asS's_tob_2_2a_denominator'
p263
(lp264
F0.0
aF0.02
aF0.0
ag3
(g7
S'\x00\x00\x00\x00\x00\x00\x00\x00'
p265
tp266
Rp267
aF1.0
aF0.0006
aF0.4788
aF0.4195
aF0.012
aF0.0001
aF0.3621
aF0.0048
aF0.0085
aF0.0
aF0.0
aF0.0
aF0.0
aF0.0
aF0.0
aF0.0
asS's_hbips_3_measure_description'
p268
(lp269
F0.5
aF1.0
aF0.0
ag3
(g7
S'\x00\x00\x00\x00\x00\x00\x00\x00'
p270
tp271
Rp272
aF0.0
aF0.1343
aF0.0
aF0.0
aF0.0
aF0.0
aF0.0
aF0.0
aF0.0
aF0.6665
aF0.5555
aF0.0
aF1.0
aF0.0
aF0.0
aF0.0
asS's_fuh_7_denominator'
p273
(lp274
F0.0
aF0.02
aF0.0
ag3
(g7
S'\x00\x00\x00\x00\x00\x00\x00\x00'
p275
tp276
Rp277
aF1.0
aF0.0006
aF0.4431
aF0.428
aF0.0069
aF0.0
aF0.3614
aF0.0022
aF0.0042
aF0.0
aF0.0
aF0.0
aF0.0
aF0.0
aF0.0
aF0.0
asS's_hie_yes_percent'
p278
(lp279
F0.0
aF1.0
aF0.0
ag3
(g7
S'\x00\x00\x00\x00\x00\x00\x00\x00'
p280
tp281
Rp282
aF0.0
aF0.0146
aF0.0013
aF0.2772
aF0.0001
aF0.0
aF0.1364
aF0.0
aF0.0
aF0.0
aF0.0
aF0.0
aF0.0
aF0.0
aF0.0
aF0.0
asS's_fuh_measure_description'
p283
(lp284
F0.5
aF1.0
aF0.0
ag3
(g7
S'\x00\x00\x00\x00\x00\x00\x00\x00'
p285
tp286
Rp287
aF0.0
aF1.0
aF0.0
aF0.0
aF0.0
aF0.0
aF0.0
aF0.0
aF0.0
aF0.8506
aF0.97
aF0.056
aF0.9552
aF0.0
aF1.0
aF0.6935
asS's_tob_1_denominator'
p288
(lp289
F0.0
aF0.02
aF0.0
ag3
(g7
S'\x00\x00\x00\x00\x00\x00\x00\x00'
p290
tp291
Rp292
aF1.0
aF0.0007
aF0.4206
aF0.3621
aF0.0262
aF0.0005
aF0.3623
aF0.0149
aF0.0198
aF0.0
aF0.0
aF0.0
aF0.0
aF0.0
aF0.0
aF0.0
asS's_ehr_non_certified_percentage'
p293
(lp294
F0.0
aF0.01
aF0.0
ag3
(g7
S'\x00\x00\x00\x00\x00\x00\x00\x00'
p295
tp296
Rp297
aF0.0
aF0.0001
aF0.2302
aF0.7607
aF0.0
aF0.0
aF0.5562
aF0.0
aF0.0
aF0.0
aF0.0
aF0.0
aF0.0
aF0.0
aF0.0
aF0.0
asS's_ehr_non_certified_count'
p298
(lp299
F0.25
aF0.008
aF0.0
ag3
(g7
S'\x00\x00\x00\x00\x00\x00\x00\x00'
p300
tp301
Rp302
aF0.0
aF0.0001
aF0.0
aF0.0
aF0.0
aF0.0
aF0.4303
aF0.0
aF0.0
aF0.0
aF0.0
aF0.0
aF0.0
aF0.0
aF0.0
aF0.0
asS's_imm_2_numerator'
p303
(lp304
F0.0
aF0.02
aF0.0
ag3
(g7
S'\x00\x00\x00\x00\x00\x00\x00\x00'
p305
tp306
Rp307
aF1.0
aF0.0006
aF0.5013
aF0.4269
aF0.0128
aF0.0001
aF0.3374
aF0.0107
aF0.0076
aF0.0
aF0.0
aF0.0
aF0.0
aF0.0
aF0.0
aF0.0
asS's_hbips_6_overall_percentage_of_total'
p308
(lp309
F0.0
aF0.01
aF0.0
ag3
(g7
S'\x00\x00\x00\x00\x00\x00\x00\x00'
p310
tp311
Rp312
aF0.0
aF0.0001
aF0.0
aF0.0
aF0.0002
aF0.0
aF0.0397
aF0.0014
aF0.0
aF0.0
aF0.0
aF0.0
aF0.0
aF0.0
aF0.0
aF0.0
asS's_hbips_6_measure_description'
p313
(lp314
F0.5
aF1.0
aF0.0
ag3
(g7
S'\x00\x00\x00\x00\x00\x00\x00\x00'
p315
tp316
Rp317
aF0.0
aF0.3209
aF0.0
aF0.0
aF0.0
aF0.0
aF0.0
aF0.0
aF0.0
aF0.5579
aF0.5815
aF0.0
aF1.0
aF0.0
aF0.0
aF0.7214
asS'start_date'
p318
(lp319
F1.0
aF0.008
aF0.0
ag3
(g7
S'\x00\x00\x00\x00\x00\x00\x00\x00'
p320
tp321
Rp322
aF0.0
aF0.0006
aF0.0
aF0.0
aF0.0
aF0.0
aF0.0
aF0.0
aF0.0
aF0.0
aF1.0
aF1.0
aF0.2
aF1.0
aF0.0
aF0.0
asS's_fuh_measure_end_date'
p323
(lp324
F1.0
aF0.008
aF0.0
ag3
(g7
S'\x00\x00\x00\x00\x00\x00\x00\x00'
p325
tp326
Rp327
aF0.0
aF0.0006
aF0.0
aF0.0
aF0.0
aF0.0
aF0.0
aF0.0
aF0.0
aF0.0
aF1.0
aF1.0
aF0.2
aF1.0
aF0.0
aF0.0
asS's_imm_2_measure_description'
p328
(lp329
F0.5
aF1.0
aF0.0
ag3
(g7
S'\x00\x00\x00\x00\x00\x00\x00\x00'
p330
tp331
Rp332
aF0.0
aF0.1642
aF0.0
aF0.0
aF0.0
aF0.0
aF0.0
aF0.0
aF0.0
aF0.2729
aF0.2275
aF0.0
aF1.0
aF0.0
aF0.0
aF0.0
asS's_hie_no_count'
p333
(lp334
F0.25
aF0.008
aF0.0
ag3
(g7
S'\x00\x00\x00\x00\x00\x00\x00\x00'
p335
tp336
Rp337
aF0.0
aF0.0001
aF0.7831
aF0.8521
aF0.0
aF0.0
aF0.3157
aF0.0001
aF0.0
aF0.0
aF0.0
aF0.0
aF0.0
aF0.0
aF0.0
aF0.0
asS's_peoc_yes_percentage'
p338
(lp339
F0.0
aF0.01
aF0.0
ag3
(g7
S'\x00\x00\x00\x00\x00\x00\x00\x00'
p340
tp341
Rp342
aF0.0
aF0.0002
aF0.2698
aF0.4272
aF0.0001
aF0.0
aF0.067
aF0.0018
aF0.0
aF0.0
aF0.0
aF0.0
aF0.0
aF0.0
aF0.0
aF0.0
asS's_hbips_7_overall_num'
p343
(lp344
F0.0
aF0.02
aF0.0
ag3
(g7
S'\x00\x00\x00\x00\x00\x00\x00\x00'
p345
tp346
Rp347
aF1.0
aF0.0007
aF0.381
aF0.3378
aF0.0263
aF0.0004
aF0.333
aF0.0279
aF0.0153
aF0.0
aF0.0
aF0.0
aF0.0
aF0.0
aF0.0
aF0.0
asS's_hbips_5_measure_description'
p348
(lp349
F0.5
aF1.0
aF0.0
ag3
(g7
S'\x00\x00\x00\x00\x00\x00\x00\x00'
p350
tp351
Rp352
aF0.0
aF0.6567
aF0.0
aF0.0
aF0.0
aF0.0
aF0.0
aF0.0
aF0.0
aF0.5453
aF0.4545
aF0.0
aF1.0
aF0.0
aF0.0
aF0.0
asS's_fuh_30_denominator'
p353
(lp354
F0.0
aF0.02
aF0.0
ag3
(g7
S'\x00\x00\x00\x00\x00\x00\x00\x00'
p355
tp356
Rp357
aF1.0
aF0.0006
aF0.4431
aF0.428
aF0.0069
aF0.0
aF0.3614
aF0.0022
aF0.0042
aF0.0
aF0.0
aF0.0
aF0.0
aF0.0
aF0.0
aF0.0
asS's_tob_2_numerator'
p358
(lp359
F0.0
aF0.02
aF0.0
ag3
(g7
S'\x00\x00\x00\x00\x00\x00\x00\x00'
p360
tp361
Rp362
aF1.0
aF0.0006
aF0.545
aF0.4747
aF0.0074
aF0.0
aF0.3387
aF0.0034
aF0.0037
aF0.0
aF0.0
aF0.0
aF0.0
aF0.0
aF0.0
aF0.0
asS's_fuh_30_percentage'
p363
(lp364
F0.0
aF0.01
aF0.0
ag3
(g7
S'\x00\x00\x00\x00\x00\x00\x00\x00'
p365
tp366
Rp367
aF0.0
aF0.0001
aF0.0
aF0.0
aF0.0001
aF0.0
aF0.0607
aF0.0009
aF0.0
aF0.0
aF0.0
aF0.0
aF0.0
aF0.0
aF0.0
aF0.0
asS's_ehr_paper_count'
p368
(lp369
F0.25
aF0.008
aF0.0
ag3
(g7
S'\x00\x00\x00\x00\x00\x00\x00\x00'
p370
tp371
Rp372
aF0.0
aF0.0001
aF0.8161
aF0.9018
aF0.0
aF0.0
aF0.3334
aF0.0
aF0.0
aF0.0
aF0.0
aF0.0
aF0.0
aF0.0
aF0.0
aF0.0
asS's_hie_measure_description'
p373
(lp374
F0.5
aF1.0
aF0.0
ag3
(g7
S'\x00\x00\x00\x00\x00\x00\x00\x00'
p375
tp376
Rp377
aF0.0
aF0.3881
aF0.0
aF0.0
aF0.0
aF0.0
aF0.0
aF0.0
aF0.0
aF0.5771
aF0.481
aF0.0
aF1.0
aF0.0
aF0.0
aF0.0
as.