(dp0
S'tr_hcp_measure_description'
p1
(lp2
F0.5
aF1.0
aF0.0
acnumpy.core.multiarray
scalar
p3
(cnumpy
dtype
p4
(S'f8'
p5
I0
I1
tp6
Rp7
(I3
S'<'
p8
NNNI-1
I-1
I0
tp9
bS'\x00\x00\x00\x00\x00\x00\x00\x00'
p10
tp11
Rp12
aF0.0
aF0.3134
aF0.0
aF0.0
aF0.0
aF0.0
aF0.0
aF0.0
aF0.0
aF0.3927
aF0.3099
aF0.0
aF1.0
aF0.0
aF0.0
aF0.0
asS'tr_hbips_6_overall_num'
p13
(lp14
F0.0
aF0.02
aF0.0
ag3
(g7
S'\x00\x00\x00\x00\x00\x00\x00\x00'
p15
tp16
Rp17
aF1.0
aF0.0004
aF0.0481
aF0.2675
aF0.0009
aF0.0
aF0.0653
aF0.0
aF0.0024
aF0.0
aF0.0
aF0.0
aF0.0
aF0.0
aF0.0
aF0.0
asS'tr_hbips_7_overall_num'
p18
(lp19
F0.0
aF0.02
aF0.0
ag3
(g7
S'\x00\x00\x00\x00\x00\x00\x00\x00'
p20
tp21
Rp22
aF1.0
aF0.0004
aF0.0526
aF0.2835
aF0.0008
aF0.0
aF0.0654
aF0.0
aF0.002
aF0.0
aF0.0
aF0.0
aF0.0
aF0.0
aF0.0
aF0.0
asS'tr_hbips_3_overall_den'
p23
(lp24
F0.0
aF0.02
aF0.0
ag3
(g7
S'\x00\x00\x00\x00\x00\x00\x00\x00'
p25
tp26
Rp27
aF1.0
aF0.0006
aF0.1027
aF0.268
aF0.0309
aF0.0001
aF0.1164
aF0.0
aF0.1575
aF0.0
aF0.0
aF0.0
aF0.0
aF0.0
aF0.0
aF0.0
asS'tr_hbips_3_overall_num'
p28
(lp29
F0.0
aF0.02
aF0.0
ag3
(g7
S'\x00\x00\x00\x00\x00\x00\x00\x00'
p30
tp31
Rp32
aF1.0
aF0.0002
aF0.1185
aF0.7736
aF0.0004
aF0.0
aF1.0
aF0.0
aF0.0343
aF0.0
aF0.0
aF0.0
aF0.0
aF0.0
aF0.0
aF0.0
asS'tr_imm_2_percentage'
p33
(lp34
F0.0
aF0.01
aF0.0
ag3
(g7
S'\x00\x00\x00\x00\x00\x00\x00\x00'
p35
tp36
Rp37
aF0.0
aF0.0001
aF0.0
aF0.0
aF0.0
aF0.0
aF0.0292
aF0.0
aF0.0
aF0.0
aF0.0
aF0.0
aF0.0
aF0.0
aF0.0
aF0.0
asS'tr_hbips_6_overall_den'
p38
(lp39
F0.0
aF0.02
aF0.0
ag3
(g7
S'\x00\x00\x00\x00\x00\x00\x00\x00'
p40
tp41
Rp42
aF1.0
aF0.0005
aF0.0437
aF0.25
aF0.0011
aF0.0
aF0.1284
aF0.0
aF0.0116
aF0.0
aF0.0
aF0.0
aF0.0
aF0.0
aF0.0
aF0.0
asS'tr_hcp_numerator'
p43
(lp44
F0.0
aF0.02
aF0.0
ag3
(g7
S'\x00\x00\x00\x00\x00\x00\x00\x00'
p45
tp46
Rp47
aF1.0
aF0.0004
aF0.0826
aF0.4252
aF0.0005
aF0.0
aF0.2292
aF0.0
aF0.0083
aF0.0
aF0.0
aF0.0
aF0.0
aF0.0
aF0.0
aF0.0
asS'tr_flu_season_end_date'
p48
(lp49
F1.0
aF0.008
aF0.0
ag3
(g7
S'\x00\x00\x00\x00\x00\x00\x00\x00'
p50
tp51
Rp52
aF0.0
aF0.0006
aF0.0
aF0.0
aF0.0
aF0.0
aF0.0
aF0.0
aF0.0
aF0.0
aF0.8681
aF1.0
aF0.2
aF1.0
aF0.0
aF0.0
asS'tr_hbips_2_measure_description'
p53
(lp54
F0.5
aF1.0
aF0.0
ag3
(g7
S'\x00\x00\x00\x00\x00\x00\x00\x00'
p55
tp56
Rp57
aF0.0
aF0.2313
aF0.0
aF0.0
aF0.0
aF0.0
aF0.0
aF0.0
aF0.0
aF0.5325
aF0.5599
aF0.0
aF1.0
aF0.0
aF0.0
aF1.0
asS'tr_peoc_assessed_response'
p58
(lp59
F0.5
aF1.0
aF0.0
ag3
(g7
S'\x00\x00\x00\x00\x00\x00\x00\x00'
p60
tp61
Rp62
aF0.0
aF0.0215
aF0.0047
aF0.6136
aF0.0
aF0.0
aF0.0
aF0.0
aF0.0
aF0.0209
aF0.0165
aF0.0
aF1.0
aF0.0
aF0.0
aF0.0
asS'tr_hcp_percentage'
p63
(lp64
F0.0
aF0.01
aF0.0
ag3
(g7
S'\x00\x00\x00\x00\x00\x00\x00\x00'
p65
tp66
Rp67
aF0.0
aF0.0002
aF0.0613
aF0.3089
aF0.0001
aF0.0
aF0.0221
aF0.0
aF0.0
aF0.0
aF0.0
aF0.0
aF0.0
aF0.0
aF0.0
aF0.0
asS'tr_sub_1_footnote'
p68
(lp69
F0.25
aF0.008
aF0.0
ag3
(g7
S'\x00\x00\x00\x00\x00\x00\x00\x00'
p70
tp71
Rp72
aF0.0
aF0.0002
aF0.1778
aF0.2495
aF0.0
aF0.0
aF0.3418
aF0.0
aF0.0
aF0.0
aF0.0
aF0.0
aF0.0
aF0.0
aF0.0
aF0.0
asS'tr_tob_2_percentage'
p73
(lp74
F0.0
aF0.01
aF0.0
ag3
(g7
S'\x00\x00\x00\x00\x00\x00\x00\x00'
p75
tp76
Rp77
aF0.0
aF0.0001
aF0.0
aF0.0
aF0.0
aF0.0
aF0.0473
aF0.0
aF0.0
aF0.0
aF0.0
aF0.0
aF0.0
aF0.0
aF0.0
aF0.0
asS'tr_hcp_denominator'
p78
(lp79
F0.0
aF0.02
aF0.0
ag3
(g7
S'\x00\x00\x00\x00\x00\x00\x00\x00'
p80
tp81
Rp82
aF1.0
aF0.0004
aF0.0887
aF0.4251
aF0.0007
aF0.0
aF0.2059
aF0.0
aF0.0095
aF0.0
aF0.0
aF0.0
aF0.0
aF0.0
aF0.0
aF0.0
asS'tr_hbips_2_overall_rate_per_1000'
p83
(lp84
F0.5
aF1.0
aF0.0
ag3
(g7
S'\x00\x00\x00\x00\x00\x00\x00\x00'
p85
tp86
Rp87
aF0.0
aF0.0233
aF0.0065
aF0.6624
aF0.0
aF0.0
aF0.0
aF0.0
aF0.0
aF0.0
aF1.0
aF0.962
aF0.2304
aF0.0
aF0.0
aF0.0
asS'tr_hbips_2_overall_den'
p88
(lp89
F0.0
aF0.02
aF0.0
ag3
(g7
S'\x00\x00\x00\x00\x00\x00\x00\x00'
p90
tp91
Rp92
aF1.0
aF0.0006
aF0.0987
aF0.262
aF0.0316
aF0.0001
aF0.1182
aF0.0
aF0.1575
aF0.0
aF0.0
aF0.0
aF0.0
aF0.0
aF0.0
aF0.0
asS'tr_hcp_footnote'
p93
(lp94
F0.25
aF0.008
aF0.0
ag3
(g7
S'\x00\x00\x00\x00\x00\x00\x00\x00'
p95
tp96
Rp97
aF0.0
aF0.0002
aF0.2245
aF0.2832
aF0.0
aF0.0
aF0.295
aF0.0
aF0.0
aF0.0
aF0.0
aF0.0
aF0.0
aF0.0
aF0.0
aF0.0
asS'tr_tob_2_footnote'
p98
(lp99
F0.25
aF0.008
aF0.0
ag3
(g7
S'\x00\x00\x00\x00\x00\x00\x00\x00'
p100
tp101
Rp102
aF0.0
aF0.0002
aF0.5333
aF0.4722
aF0.0
aF0.0
aF0.2113
aF0.0
aF0.0
aF0.0
aF0.0
aF0.0
aF0.0
aF0.0
aF0.0
aF0.0
asS'tr_hbips_3_overall_rate_per_1000'
p103
(lp104
F0.5
aF1.0
aF0.0
ag3
(g7
S'\x00\x00\x00\x00\x00\x00\x00\x00'
p105
tp106
Rp107
aF0.0
aF0.0198
aF0.0078
aF0.8545
aF0.0
aF0.0
aF0.0
aF0.0
aF0.0
aF0.0
aF0.9197
aF0.9851
aF0.2119
aF0.0
aF0.0
aF0.0
asS'tr_hbips_2_overall_footnote'
p108
(lp109
F0.25
aF0.008
aF0.0
ag3
(g7
S'\x00\x00\x00\x00\x00\x00\x00\x00'
p110
tp111
Rp112
aF0.0
aF0.0002
aF0.0755
aF0.1594
aF0.0
aF0.0
aF0.4502
aF0.0
aF0.0
aF0.0
aF0.0
aF0.0
aF0.0
aF0.0
aF0.0
aF0.0
asS'tr_hbips_5_measure_description'
p113
(lp114
F0.5
aF1.0
aF0.0
ag3
(g7
S'\x00\x00\x00\x00\x00\x00\x00\x00'
p115
tp116
Rp117
aF0.0
aF0.6567
aF0.0
aF0.0
aF0.0
aF0.0
aF0.0
aF0.0
aF0.0
aF0.5
aF0.3945
aF0.0
aF1.0
aF0.0
aF0.0
aF0.0
asS'tr_tob_2a_footnote'
p118
(lp119
F0.25
aF0.008
aF0.0
ag3
(g7
S'\x00\x00\x00\x00\x00\x00\x00\x00'
p120
tp121
Rp122
aF0.0
aF0.0002
aF0.8095
aF0.6464
aF0.0
aF0.0
aF0.1634
aF0.0
aF0.0
aF0.0
aF0.0
aF0.0
aF0.0
aF0.0
aF0.0
aF0.0
asS'tr_imm_2_denominator'
p123
(lp124
F0.0
aF0.02
aF0.0
ag3
(g7
S'\x00\x00\x00\x00\x00\x00\x00\x00'
p125
tp126
Rp127
aF1.0
aF0.0004
aF0.0622
aF0.3264
aF0.0006
aF0.0
aF0.1679
aF0.0
aF0.0085
aF0.0
aF0.0
aF0.0
aF0.0
aF0.0
aF0.0
aF0.0
asS'tr_hbips_5_overall_den'
p128
(lp129
F0.0
aF0.02
aF0.0
ag3
(g7
S'\x00\x00\x00\x00\x00\x00\x00\x00'
p130
tp131
Rp132
aF1.0
aF0.0002
aF0.0657
aF0.6244
aF0.0001
aF0.0
aF0.2004
aF0.0
aF0.0006
aF0.0
aF0.0
aF0.0
aF0.0
aF0.0
aF0.0
aF0.0
asS'tr_hospital_name'
p133
(lp134
F0.5
aF1.0
aF0.0
ag3
(g7
S'\x00\x00\x00\x00\x00\x00\x00\x00'
p135
tp136
Rp137
aF0.0
aF0.2118
aF0.2526
aF0.4526
aF0.0
aF0.0
aF0.0
aF0.0
aF0.0
aF0.5501
aF0.4588
aF0.0001
aF0.9999
aF0.0015
aF0.0048
aF0.0619
asS'tr_end_date'
p138
(lp139
F1.0
aF0.008
aF0.0
ag3
(g7
S'\x00\x00\x00\x00\x00\x00\x00\x00'
p140
tp141
Rp142
aF0.0
aF0.0006
aF0.0
aF0.0
aF0.0
aF0.0
aF0.0
aF0.0
aF0.0
aF0.0
aF0.8681
aF1.0
aF0.2
aF1.0
aF0.0
aF0.0
asS'tr_tob_2_2a__denominator'
p143
(lp144
F0.0
aF0.02
aF0.0
ag3
(g7
S'\x00\x00\x00\x00\x00\x00\x00\x00'
p145
tp146
Rp147
aF1.0
aF0.0003
aF0.1432
aF0.5909
aF0.0003
aF0.0
aF0.1338
aF0.0
aF0.0036
aF0.0
aF0.0
aF0.0
aF0.0
aF0.0
aF0.0
aF0.0
asS'tr_fuh_measure_end_date'
p148
(lp149
F1.0
aF0.008
aF0.0
ag3
(g7
S'\x00\x00\x00\x00\x00\x00\x00\x00'
p150
tp151
Rp152
aF0.0
aF0.0006
aF0.0
aF0.0
aF0.0
aF0.0
aF0.0
aF0.0
aF0.0
aF0.0
aF0.8681
aF1.0
aF0.2
aF1.0
aF0.0
aF0.0
asS'tr_ehr_use_footnote'
p153
(lp154
F0.25
aF0.008
aF0.0
ag3
(g7
S'\x00\x00\x00\x00\x00\x00\x00\x00'
p155
tp156
Rp157
aF0.0
aF0.0002
aF0.0443
aF0.1212
aF0.0
aF0.0
aF0.585
aF0.0
aF0.0
aF0.0
aF0.0
aF0.0
aF0.0
aF0.0
aF0.0
aF0.0
asS'tr_hie_response'
p158
(lp159
F0.5
aF1.0
aF0.0
ag3
(g7
S'\x00\x00\x00\x00\x00\x00\x00\x00'
p160
tp161
Rp162
aF0.0
aF0.0185
aF0.0053
aF0.7487
aF0.0
aF0.0
aF0.0
aF0.0
aF0.0
aF0.0242
aF0.0191
aF0.0
aF1.0
aF0.0
aF0.0
aF0.0
asS'tr_peoc_assessed_footnote'
p163
(lp164
F0.25
aF0.008
aF0.0
ag3
(g7
S'\x00\x00\x00\x00\x00\x00\x00\x00'
p165
tp166
Rp167
aF0.0
aF0.0002
aF0.0443
aF0.1212
aF0.0
aF0.0
aF0.585
aF0.0
aF0.0
aF0.0
aF0.0
aF0.0
aF0.0
aF0.0
aF0.0
aF0.0
asS'tr_hbips_3_overall_footnote'
p168
(lp169
F0.25
aF0.008
aF0.0
ag3
(g7
S'\x00\x00\x00\x00\x00\x00\x00\x00'
p170
tp171
Rp172
aF0.0
aF0.0002
aF0.0851
aF0.1694
aF0.0
aF0.0
aF0.4228
aF0.0
aF0.0
aF0.0
aF0.0
aF0.0
aF0.0
aF0.0
aF0.0
aF0.0
asS'tr_hbips_6_measure_description'
p173
(lp174
F0.5
aF1.0
aF0.0
ag3
(g7
S'\x00\x00\x00\x00\x00\x00\x00\x00'
p175
tp176
Rp177
aF0.0
aF0.3209
aF0.0
aF0.0
aF0.0
aF0.0
aF0.0
aF0.0
aF0.0
aF0.5116
aF0.5048
aF0.0
aF1.0
aF0.0
aF0.0
aF0.7214
asS'tr_city'
p178
(lp179
F0.5
aF1.0
aF0.0
ag3
(g7
S'\x00\x00\x00\x00\x00\x00\x00\x00'
p180
tp181
Rp182
aF0.0
aF0.0655
aF0.0241
aF0.452
aF0.0
aF0.0
aF0.0
aF0.0
aF0.0
aF0.1535
aF0.122
aF0.0
aF1.0
aF0.0
aF0.0
aF0.0031
asS'tr_hbips_6_overall_percentage_of_total'
p183
(lp184
F0.0
aF0.01
aF0.0
ag3
(g7
S'\x00\x00\x00\x00\x00\x00\x00\x00'
p185
tp186
Rp187
aF0.0
aF0.0001
aF0.0
aF0.0
aF0.0
aF0.0
aF0.0175
aF0.0
aF0.0
aF0.0
aF0.0
aF0.0
aF0.0
aF0.0
aF0.0
aF0.0
asS'tr_fuh_7_numerator'
p188
(lp189
F0.0
aF0.02
aF0.0
ag3
(g7
S'\x00\x00\x00\x00\x00\x00\x00\x00'
p190
tp191
Rp192
aF1.0
aF0.0003
aF0.0579
aF0.495
aF0.0001
aF0.0
aF0.0773
aF0.0
aF0.0001
aF0.0
aF0.0
aF0.0
aF0.0
aF0.0
aF0.0
aF0.0
asS'tr_hbips_7_measure_description'
p193
(lp194
F0.5
aF1.0
aF0.0
ag3
(g7
S'\x00\x00\x00\x00\x00\x00\x00\x00'
p195
tp196
Rp197
aF0.0
aF0.7239
aF0.0
aF0.0
aF0.0
aF0.0
aF0.0
aF0.0
aF0.0
aF0.7371
aF0.6263
aF0.0
aF1.0
aF0.0
aF0.0
aF0.3189
asS'tr_hbips_5_overall_percentage_of_total'
p198
(lp199
F0.0
aF0.01
aF0.0
ag3
(g7
S'\x00\x00\x00\x00\x00\x00\x00\x00'
p200
tp201
Rp202
aF0.0
aF0.0001
aF0.0
aF0.0
aF0.0
aF0.0
aF0.0854
aF0.0
aF0.0
aF0.0
aF0.0
aF0.0
aF0.0
aF0.0
aF0.0
aF0.0
asS'tr_hie_footnote'
p203
(lp204
F0.25
aF0.008
aF0.0
ag3
(g7
S'\x00\x00\x00\x00\x00\x00\x00\x00'
p205
tp206
Rp207
aF0.0
aF0.0002
aF0.0443
aF0.1212
aF0.0
aF0.0
aF0.585
aF0.0
aF0.0
aF0.0
aF0.0
aF0.0
aF0.0
aF0.0
aF0.0
aF0.0
asS'tr_provider_number'
p208
(lp209
F0.0
aF1.0
aF1.0
ag3
(g7
S'\x00\x00\x00\x00\x00\x00\x00\x00'
p210
tp211
Rp212
aF1.0
aF0.0436
aF0.0005
aF0.0952
aF0.5017
aF0.0017
aF0.0344
aF0.3652
aF0.1886
aF0.0
aF0.0
aF0.0
aF0.0
aF0.0
aF0.0
aF0.0
asS'tr_ehr_use_response'
p213
(lp214
F0.5
aF1.0
aF0.0
ag3
(g7
S'\x00\x00\x00\x00\x00\x00\x00\x00'
p215
tp216
Rp217
aF0.0
aF0.1569
aF0.0276
aF0.2019
aF0.0
aF0.0
aF0.0
aF0.0
aF0.0
aF0.6744
aF0.5369
aF0.0
aF1.0
aF0.0
aF0.0
aF0.0341
asS'tr_fuh_7_denominator'
p218
(lp219
F0.0
aF0.02
aF0.0
ag3
(g7
S'\x00\x00\x00\x00\x00\x00\x00\x00'
p220
tp221
Rp222
aF1.0
aF0.0003
aF0.1259
aF0.6125
aF0.0002
aF0.0
aF0.0724
aF0.0
aF0.0003
aF0.0
aF0.0
aF0.0
aF0.0
aF0.0
aF0.0
aF0.0
asS'tr_fuh_30_footnote'
p223
(lp224
F0.25
aF0.008
aF0.0
ag3
(g7
S'\x00\x00\x00\x00\x00\x00\x00\x00'
p225
tp226
Rp227
aF0.0
aF0.0002
aF0.6028
aF0.5132
aF0.0
aF0.0
aF0.1789
aF0.0
aF0.0
aF0.0
aF0.0
aF0.0
aF0.0
aF0.0
aF0.0
aF0.0
asS'tr_tob_2_numerator'
p228
(lp229
F0.0
aF0.02
aF0.0
ag3
(g7
S'\x00\x00\x00\x00\x00\x00\x00\x00'
p230
tp231
Rp232
aF1.0
aF0.0003
aF0.1058
aF0.5215
aF0.0002
aF0.0
aF0.0794
aF0.0
aF0.0005
aF0.0
aF0.0
aF0.0
aF0.0
aF0.0
aF0.0
aF0.0
asS'tr_peoc_measure_description'
p233
(lp234
F0.5
aF1.0
aF0.0
ag3
(g7
S'\x00\x00\x00\x00\x00\x00\x00\x00'
p235
tp236
Rp237
aF0.0
aF0.2985
aF0.0
aF0.0
aF0.0
aF0.0
aF0.0
aF0.0
aF0.0
aF0.6876
aF0.5425
aF0.0
aF1.0
aF0.0
aF0.0
aF0.0
asS'tr_zip_code'
p238
(lp239
F0.25
aF0.008
aF0.0
ag3
(g7
S'\x00\x00\x00\x00\x00\x00\x00\x00'
p240
tp241
Rp242
aF0.0
aF0.0003
aF0.0446
aF0.0986
aF0.0913
aF0.0001
aF0.0358
aF0.0227
aF0.0281
aF0.0
aF0.0
aF0.0
aF0.0
aF0.0
aF0.0
aF0.0
asS'tr_hbips_6_overall_footnote'
p243
(lp244
F0.25
aF0.008
aF0.0
ag3
(g7
S'\x00\x00\x00\x00\x00\x00\x00\x00'
p245
tp246
Rp247
aF0.0
aF0.0002
aF0.0804
aF0.1645
aF0.0
aF0.0
aF0.5122
aF0.0
aF0.0
aF0.0
aF0.0
aF0.0
aF0.0
aF0.0
aF0.0
aF0.0
asS'tr_hbips_2_overall_num'
p248
(lp249
F0.0
aF0.02
aF0.0
ag3
(g7
S'\x00\x00\x00\x00\x00\x00\x00\x00'
p250
tp251
Rp252
aF1.0
aF0.0003
aF0.131
aF0.7268
aF0.0005
aF0.0
aF0.7263
aF0.0
aF0.0343
aF0.0
aF0.0
aF0.0
aF0.0
aF0.0
aF0.0
aF0.0
asS'tr_tob_2_2a_measure_desc'
p253
(lp254
F0.5
aF1.0
aF0.0
ag3
(g7
S'\x00\x00\x00\x00\x00\x00\x00\x00'
p255
tp256
Rp257
aF0.0
aF0.3582
aF0.0
aF0.0
aF0.0
aF0.0
aF0.0
aF0.0
aF0.0
aF0.6876
aF0.7235
aF0.0
aF1.0
aF0.0
aF1.0
aF0.0
asS'tr_hbips_3_measure_description'
p258
(lp259
F0.5
aF1.0
aF0.0
ag3
(g7
S'\x00\x00\x00\x00\x00\x00\x00\x00'
p260
tp261
Rp262
aF0.0
aF0.1343
aF0.0
aF0.0
aF0.0
aF0.0
aF0.0
aF0.0
aF0.0
aF0.6111
aF0.4822
aF0.0
aF1.0
aF0.0
aF0.0
aF0.0
asS'tr_tob_2a_numerator'
p263
(lp264
F0.0
aF0.02
aF0.0
ag3
(g7
S'\x00\x00\x00\x00\x00\x00\x00\x00'
p265
tp266
Rp267
aF1.0
aF0.0003
aF0.0976
aF0.6094
aF0.0001
aF0.0
aF0.1109
aF0.0
aF0.0005
aF0.0
aF0.0
aF0.0
aF0.0
aF0.0
aF0.0
aF0.0
asS'tr_sub_1_denominator'
p268
(lp269
F0.0
aF0.02
aF0.0
ag3
(g7
S'\x00\x00\x00\x00\x00\x00\x00\x00'
p270
tp271
Rp272
aF1.0
aF0.0004
aF0.0494
aF0.2797
aF0.0008
aF0.0
aF0.0595
aF0.0
aF0.0016
aF0.0
aF0.0
aF0.0
aF0.0
aF0.0
aF0.0
aF0.0
asS'tr_address'
p273
(lp274
F0.5
aF1.0
aF0.0
ag3
(g7
S'\x00\x00\x00\x00\x00\x00\x00\x00'
p275
tp276
Rp277
aF0.0
aF0.153
aF0.1083
aF0.4103
aF0.0
aF0.0
aF0.0
aF0.0
aF0.0
aF1.0
aF0.8086
aF0.2382
aF0.8094
aF0.0005
aF0.0048
aF0.0186
asS'tr_tob_1_footnote'
p278
(lp279
F0.25
aF0.008
aF0.0
ag3
(g7
S'\x00\x00\x00\x00\x00\x00\x00\x00'
p280
tp281
Rp282
aF0.0
aF0.0002
aF0.139
aF0.2189
aF0.0
aF0.0
aF0.3639
aF0.0
aF0.0
aF0.0
aF0.0
aF0.0
aF0.0
aF0.0
aF0.0
aF0.0
asS'tr_tob_2a_percentage'
p283
(lp284
F0.0
aF0.01
aF0.0
ag3
(g7
S'\x00\x00\x00\x00\x00\x00\x00\x00'
p285
tp286
Rp287
aF0.0
aF0.0001
aF0.0
aF0.0
aF0.0
aF0.0
aF0.1078
aF0.0
aF0.0
aF0.0
aF0.0
aF0.0
aF0.0
aF0.0
aF0.0
aF0.0
asS'tr_fuh_7_percentage'
p288
(lp289
F0.0
aF0.01
aF0.0
ag3
(g7
S'\x00\x00\x00\x00\x00\x00\x00\x00'
p290
tp291
Rp292
aF0.0
aF0.0001
aF0.0
aF0.0
aF0.0
aF0.0
aF0.2432
aF0.0
aF0.0
aF0.0
aF0.0
aF0.0
aF0.0
aF0.0
aF0.0
aF0.0
asS'tr_fuh_30_percentage'
p293
(lp294
F0.0
aF0.01
aF0.0
ag3
(g7
S'\x00\x00\x00\x00\x00\x00\x00\x00'
p295
tp296
Rp297
aF0.0
aF0.0001
aF0.0
aF0.0
aF0.0
aF0.0
aF0.0558
aF0.0
aF0.0
aF0.0
aF0.0
aF0.0
aF0.0
aF0.0
aF0.0
aF0.0
asS'tr_ehr_use_measure_description'
p298
(lp299
F0.5
aF1.0
aF0.0
ag3
(g7
S'\x00\x00\x00\x00\x00\x00\x00\x00'
p300
tp301
Rp302
aF0.0
aF0.2537
aF0.0
aF0.0
aF0.0
aF0.0
aF0.0
aF0.0
aF0.0
aF0.8091
aF0.6385
aF0.0
aF1.0
aF0.0
aF0.0
aF0.0
asS'tr_fuh_measure_description'
p303
(lp304
F0.5
aF1.0
aF0.0
ag3
(g7
S'\x00\x00\x00\x00\x00\x00\x00\x00'
p305
tp306
Rp307
aF0.0
aF1.0
aF0.0
aF0.0
aF0.0
aF0.0
aF0.0
aF0.0
aF0.0
aF0.78
aF0.842
aF0.056
aF0.9552
aF0.0
aF0.7163
aF0.6935
asS'tr_fuh_30_numerator'
p308
(lp309
F0.0
aF0.02
aF0.0
ag3
(g7
S'\x00\x00\x00\x00\x00\x00\x00\x00'
p310
tp311
Rp312
aF1.0
aF0.0003
aF0.0664
aF0.4651
aF0.0001
aF0.0
aF0.0677
aF0.0
aF0.0002
aF0.0
aF0.0
aF0.0
aF0.0
aF0.0
aF0.0
aF0.0
asS'tr_tob_1_percentage'
p313
(lp314
F0.0
aF0.01
aF0.0
ag3
(g7
S'\x00\x00\x00\x00\x00\x00\x00\x00'
p315
tp316
Rp317
aF0.0
aF0.0001
aF0.0
aF0.0
aF0.0
aF0.0
aF0.0157
aF0.0
aF0.0
aF0.0
aF0.0
aF0.0
aF0.0
aF0.0
aF0.0
aF0.0
asS'tr_tob_1_numerator'
p318
(lp319
F0.0
aF0.02
aF0.0
ag3
(g7
S'\x00\x00\x00\x00\x00\x00\x00\x00'
p320
tp321
Rp322
aF1.0
aF0.0004
aF0.047
aF0.2743
aF0.0008
aF0.0
aF0.107
aF0.0
aF0.0069
aF0.0
aF0.0
aF0.0
aF0.0
aF0.0
aF0.0
aF0.0
asS'tr_sub_1_percentage'
p323
(lp324
F0.0
aF0.01
aF0.0
ag3
(g7
S'\x00\x00\x00\x00\x00\x00\x00\x00'
p325
tp326
Rp327
aF0.0
aF0.0001
aF0.0
aF0.0
aF0.0
aF0.0
aF0.0208
aF0.0
aF0.0
aF0.0
aF0.0
aF0.0
aF0.0
aF0.0
aF0.0
aF0.0
asS'tr_fuh_30_denominator'
p328
(lp329
F0.0
aF0.02
aF0.0
ag3
(g7
S'\x00\x00\x00\x00\x00\x00\x00\x00'
p330
tp331
Rp332
aF1.0
aF0.0003
aF0.0965
aF0.5059
aF0.0002
aF0.0
aF0.0673
aF0.0
aF0.0003
aF0.0
aF0.0
aF0.0
aF0.0
aF0.0
aF0.0
aF0.0
asS'tr_hbips_7_overall_footnote'
p333
(lp334
F0.25
aF0.008
aF0.0
ag3
(g7
S'\x00\x00\x00\x00\x00\x00\x00\x00'
p335
tp336
Rp337
aF0.0
aF0.0002
aF0.0993
aF0.1836
aF0.0
aF0.0
aF0.4823
aF0.0
aF0.0
aF0.0
aF0.0
aF0.0
aF0.0
aF0.0
aF0.0
aF0.0
asS'tr_imm_2_footnote'
p338
(lp339
F0.25
aF0.008
aF0.0
ag3
(g7
S'\x00\x00\x00\x00\x00\x00\x00\x00'
p340
tp341
Rp342
aF0.0
aF0.0002
aF0.2245
aF0.2832
aF0.0
aF0.0
aF0.3276
aF0.0
aF0.0
aF0.0
aF0.0
aF0.0
aF0.0
aF0.0
aF0.0
aF0.0
asS'tr_fuh_measure_start_date'
p343
(lp344
F1.0
aF0.008
aF0.0
ag3
(g7
S'\x00\x00\x00\x00\x00\x00\x00\x00'
p345
tp346
Rp347
aF0.0
aF0.0006
aF0.0
aF0.0
aF0.0
aF0.0
aF0.0
aF0.0
aF0.0
aF0.0
aF0.8681
aF1.0
aF0.2
aF1.0
aF0.0
aF0.0
asS'tr_hbips_7_overall_den'
p348
(lp349
F0.0
aF0.02
aF0.0
ag3
(g7
S'\x00\x00\x00\x00\x00\x00\x00\x00'
p350
tp351
Rp352
aF1.0
aF0.0004
aF0.0474
aF0.2609
aF0.001
aF0.0
aF0.1289
aF0.0
aF0.0116
aF0.0
aF0.0
aF0.0
aF0.0
aF0.0
aF0.0
aF0.0
asS'tr_hbips_5_overall_num'
p353
(lp354
F0.0
aF0.02
aF0.0
ag3
(g7
S'\x00\x00\x00\x00\x00\x00\x00\x00'
p355
tp356
Rp357
aF1.0
aF0.0002
aF0.0539
aF0.5852
aF0.0
aF0.0
aF0.1572
aF0.0
aF0.0002
aF0.0
aF0.0
aF0.0
aF0.0
aF0.0
aF0.0
aF0.0
asS'tr_sub_1_measure_description'
p358
(lp359
F0.5
aF1.0
aF0.0
ag3
(g7
S'\x00\x00\x00\x00\x00\x00\x00\x00'
p360
tp361
Rp362
aF0.0
aF0.1567
aF0.0
aF0.0
aF0.0
aF0.0
aF0.0
aF0.0
aF0.0
aF0.5237
aF0.4132
aF0.0
aF1.0
aF0.0
aF0.0
aF0.0
asS'tr_flu_season_start_date'
p363
(lp364
F1.0
aF0.008
aF0.0
ag3
(g7
S'\x00\x00\x00\x00\x00\x00\x00\x00'
p365
tp366
Rp367
aF0.0
aF0.0006
aF0.0
aF0.0
aF0.0
aF0.0
aF0.0
aF0.0
aF0.0
aF0.0
aF0.8681
aF1.0
aF0.2
aF1.0
aF0.0
aF0.0
asS'tr_imm_2_numerator'
p368
(lp369
F0.0
aF0.02
aF0.0
ag3
(g7
S'\x00\x00\x00\x00\x00\x00\x00\x00'
p370
tp371
Rp372
aF1.0
aF0.0004
aF0.0789
aF0.3878
aF0.0004
aF0.0
aF0.0778
aF0.0
aF0.0017
aF0.0
aF0.0
aF0.0
aF0.0
aF0.0
aF0.0
aF0.0
asS'tr_country_name'
p373
(lp374
F0.5
aF1.0
aF0.0
ag3
(g7
S'\x00\x00\x00\x00\x00\x00\x00\x00'
p375
tp376
Rp377
aF0.0
aF0.0575
aF0.0263
aF0.5384
aF0.0
aF0.0
aF0.0
aF0.0
aF0.0
aF0.121
aF0.0977
aF0.0
aF1.0
aF0.0
aF0.0
aF0.0155
asS'tr_tob_1_denominator'
p378
(lp379
F0.0
aF0.02
aF0.0
ag3
(g7
S'\x00\x00\x00\x00\x00\x00\x00\x00'
p380
tp381
Rp382
aF1.0
aF0.0004
aF0.0432
aF0.2597
aF0.0008
aF0.0
aF0.1029
aF0.0
aF0.007
aF0.0
aF0.0
aF0.0
aF0.0
aF0.0
aF0.0
aF0.0
asS'tr_tob_1_measure_description'
p383
(lp384
F0.5
aF1.0
aF0.0
ag3
(g7
S'\x00\x00\x00\x00\x00\x00\x00\x00'
p385
tp386
Rp387
aF0.0
aF0.1567
aF0.0
aF0.0
aF0.0
aF0.0
aF0.0
aF0.0
aF0.0
aF0.5237
aF0.4132
aF0.0
aF1.0
aF0.0
aF0.0
aF0.0
asS'tr_start_date'
p388
(lp389
F1.0
aF0.008
aF0.0
ag3
(g7
S'\x00\x00\x00\x00\x00\x00\x00\x00'
p390
tp391
Rp392
aF0.0
aF0.0006
aF0.0
aF0.0
aF0.0
aF0.0
aF0.0
aF0.0
aF0.0
aF0.0
aF0.8681
aF1.0
aF0.2
aF1.0
aF0.0
aF0.0
asS'tr_sub_1_numerator'
p393
(lp394
F0.0
aF0.02
aF0.0
ag3
(g7
S'\x00\x00\x00\x00\x00\x00\x00\x00'
p395
tp396
Rp397
aF1.0
aF0.0004
aF0.0613
aF0.3196
aF0.0007
aF0.0
aF0.0575
aF0.0
aF0.0015
aF0.0
aF0.0
aF0.0
aF0.0
aF0.0
aF0.0
aF0.0
asS'tr_hie_measure_description'
p398
(lp399
F0.5
aF1.0
aF0.0
ag3
(g7
S'\x00\x00\x00\x00\x00\x00\x00\x00'
p400
tp401
Rp402
aF0.0
aF0.3881
aF0.0
aF0.0
aF0.0
aF0.0
aF0.0
aF0.0
aF0.0
aF0.5292
aF0.4175
aF0.0
aF1.0
aF0.0
aF0.0
aF0.0
asS'tr_tob_2_2a_denominator'
p403
(lp404
F0.0
aF0.02
aF0.0
ag3
(g7
S'\x00\x00\x00\x00\x00\x00\x00\x00'
p405
tp406
Rp407
aF1.0
aF0.0004
aF0.1069
aF0.4754
aF0.0004
aF0.0
aF0.1232
aF0.0
aF0.0036
aF0.0
aF0.0
aF0.0
aF0.0
aF0.0
aF0.0
aF0.0
asS'tr_hbips_5_overall_footnote'
p408
(lp409
F0.25
aF0.008
aF0.0
ag3
(g7
S'\x00\x00\x00\x00\x00\x00\x00\x00'
p410
tp411
Rp412
aF0.0
aF0.0001
aF1.0
aF1.0
aF0.0
aF0.0
aF0.1019
aF0.0
aF0.0
aF0.0
aF0.0
aF0.0
aF0.0
aF0.0
aF0.0
aF0.0
asS'tr_state'
p413
(lp414
F0.5
aF0.004
aF0.0
ag3
(g7
S'\x00\x00\x00\x00\x00\x00\x00\x00'
p415
tp416
Rp417
aF0.0
aF0.0001
aF0.0
aF0.0
aF0.0
aF0.0
aF0.0
aF0.0
aF0.0
aF0.0
aF0.0
aF0.0
aF1.0
aF0.0
aF0.0
aF0.0
asS'tr_imm_2_measure_description'
p418
(lp419
F0.5
aF1.0
aF0.0
ag3
(g7
S'\x00\x00\x00\x00\x00\x00\x00\x00'
p420
tp421
Rp422
aF0.0
aF0.1642
aF0.0
aF0.0
aF0.0
aF0.0
aF0.0
aF0.0
aF0.0
aF0.2503
aF0.1975
aF0.0
aF1.0
aF0.0
aF0.0
aF0.0
asS'tr_fuh_7_footnote'
p423
(lp424
F0.25
aF0.008
aF0.0
ag3
(g7
S'\x00\x00\x00\x00\x00\x00\x00\x00'
p425
tp426
Rp427
aF0.0
aF0.0002
aF0.8641
aF0.6884
aF0.0
aF0.0
aF0.1365
aF0.0
aF0.0
aF0.0
aF0.0
aF0.0
aF0.0
aF0.0
aF0.0
aF0.0
asS'tr_hbips_7_overall_percentage_of_total'
p428
(lp429
F0.0
aF0.01
aF0.0
ag3
(g7
S'\x00\x00\x00\x00\x00\x00\x00\x00'
p430
tp431
Rp432
aF0.0
aF0.0001
aF0.0
aF0.0
aF0.0
aF0.0
aF0.0218
aF0.0
aF0.0
aF0.0
aF0.0
aF0.0
aF0.0
aF0.0
aF0.0
aF0.0
as.