(dp0
S'ts_s_hbips_7_overall_den'
p1
(lp2
F0.0
aF0.02
aF0.0
acnumpy.core.multiarray
scalar
p3
(cnumpy
dtype
p4
(S'f8'
p5
I0
I1
tp6
Rp7
(I3
S'<'
p8
NNNI-1
I-1
I0
tp9
bS'\x00\x00\x00\x00\x00\x00\x00\x00'
p10
tp11
Rp12
aF1.0
aF0.0007
aF0.0523
aF0.183
aF0.0334
aF0.0008
aF0.0616
aF0.0305
aF0.0196
aF0.0
aF0.0
aF0.0
aF0.0
aF0.0
aF0.0
aF0.0
asS'ts_s_sub_1_percentage'
p13
(lp14
F0.0
aF0.01
aF0.0
ag3
(g7
S'\x00\x00\x00\x00\x00\x00\x00\x00'
p15
tp16
Rp17
aF0.0
aF0.0001
aF0.0
aF0.0
aF0.0002
aF0.0
aF0.0066
aF0.002
aF0.0
aF0.0
aF0.0
aF0.0
aF0.0
aF0.0
aF0.0
aF0.0
asS'ts_s_sub_1_numerator'
p18
(lp19
F0.0
aF0.02
aF0.0
ag3
(g7
S'\x00\x00\x00\x00\x00\x00\x00\x00'
p20
tp21
Rp22
aF1.0
aF0.0006
aF0.0679
aF0.2176
aF0.0221
aF0.0003
aF0.06
aF0.0125
aF0.012
aF0.0
aF0.0
aF0.0
aF0.0
aF0.0
aF0.0
aF0.0
asS'ts_s_tob_1_numerator'
p23
(lp24
F0.0
aF0.02
aF0.0
ag3
(g7
S'\x00\x00\x00\x00\x00\x00\x00\x00'
p25
tp26
Rp27
aF1.0
aF0.0007
aF0.057
aF0.1967
aF0.024
aF0.0004
aF0.0654
aF0.0122
aF0.0186
aF0.0
aF0.0
aF0.0
aF0.0
aF0.0
aF0.0
aF0.0
asS'ts_s_tob_2a_numerator'
p28
(lp29
F0.0
aF0.02
aF0.0
ag3
(g7
S'\x00\x00\x00\x00\x00\x00\x00\x00'
p30
tp31
Rp32
aF1.0
aF0.0005
aF0.066
aF0.2684
aF0.0037
aF0.0
aF0.0603
aF0.0019
aF0.0021
aF0.0
aF0.0
aF0.0
aF0.0
aF0.0
aF0.0
aF0.0
asS'ts_s_hbips_7_overall_num'
p33
(lp34
F0.0
aF0.02
aF0.0
ag3
(g7
S'\x00\x00\x00\x00\x00\x00\x00\x00'
p35
tp36
Rp37
aF1.0
aF0.0007
aF0.0523
aF0.1839
aF0.0263
aF0.0004
aF0.0596
aF0.0279
aF0.0153
aF0.0
aF0.0
aF0.0
aF0.0
aF0.0
aF0.0
aF0.0
asS'ts_s_fuh_measure_start_date'
p38
(lp39
F1.0
aF0.008
aF0.0
ag3
(g7
S'\x00\x00\x00\x00\x00\x00\x00\x00'
p40
tp41
Rp42
aF0.0
aF0.0006
aF0.0
aF0.0
aF0.0
aF0.0
aF0.0
aF0.0
aF0.0
aF0.0
aF0.8681
aF1.0
aF0.2
aF1.0
aF0.0
aF0.0
asS'ts_start_date'
p43
(lp44
F1.0
aF0.008
aF0.0
ag3
(g7
S'\x00\x00\x00\x00\x00\x00\x00\x00'
p45
tp46
Rp47
aF0.0
aF0.0006
aF0.0
aF0.0
aF0.0
aF0.0
aF0.0
aF0.0
aF0.0
aF0.0
aF0.8681
aF1.0
aF0.2
aF1.0
aF0.0
aF0.0
asS'ts_s_peoc_no_count'
p48
(lp49
F0.25
aF0.008
aF0.0
ag3
(g7
S'\x00\x00\x00\x00\x00\x00\x00\x00'
p50
tp51
Rp52
aF0.0
aF0.0001
aF0.0998
aF0.5444
aF0.0
aF0.0
aF0.0585
aF0.0
aF0.0
aF0.0
aF0.0
aF0.0
aF0.0
aF0.0
aF0.0
aF0.0
asS'ts_st_no'
p53
(lp54
F0.0
aF1.0
aF0.0
ag3
(g7
S'\x00\x00\x00\x00\x00\x00\x00\x00'
p55
tp56
Rp57
aF1.0
aF0.0258
aF0.0022
aF0.3431
aF0.0038
aF0.0
aF0.0817
aF0.0003
aF0.0042
aF0.0
aF0.0
aF0.0
aF0.0
aF0.0
aF0.0
aF0.0
asS'ts_s_imm_2_measure_description'
p58
(lp59
F0.5
aF1.0
aF0.0
ag3
(g7
S'\x00\x00\x00\x00\x00\x00\x00\x00'
p60
tp61
Rp62
aF0.0
aF0.1642
aF0.0
aF0.0
aF0.0
aF0.0
aF0.0
aF0.0
aF0.0
aF0.2503
aF0.1975
aF0.0
aF1.0
aF0.0
aF0.0
aF0.0
asS'ts_s_tob_2a_percentage'
p63
(lp64
F0.0
aF0.01
aF0.0
ag3
(g7
S'\x00\x00\x00\x00\x00\x00\x00\x00'
p65
tp66
Rp67
aF0.0
aF0.0001
aF0.0
aF0.0
aF0.0001
aF0.0
aF0.0215
aF0.0004
aF0.0
aF0.0
aF0.0
aF0.0
aF0.0
aF0.0
aF0.0
aF0.0
asS'ts_st_name'
p68
(lp69
F0.5
aF1.0
aF0.0
ag3
(g7
S'\x00\x00\x00\x00\x00\x00\x00\x00'
p70
tp71
Rp72
aF1.0
aF0.1023
aF0.0488
aF0.4123
aF0.0
aF0.0
aF0.0
aF0.0
aF0.0
aF0.7871
aF0.6211
aF0.0087
aF0.993
aF0.0
aF0.0
aF0.0
asS'ts_s_peoc_measure_description'
p73
(lp74
F0.5
aF1.0
aF0.0
ag3
(g7
S'\x00\x00\x00\x00\x00\x00\x00\x00'
p75
tp76
Rp77
aF0.0
aF0.2985
aF0.0
aF0.0
aF0.0
aF0.0
aF0.0
aF0.0
aF0.0
aF0.6876
aF0.5425
aF0.0
aF1.0
aF0.0
aF0.0
aF0.0
asS'ts_s_tob_2_numerator'
p78
(lp79
F0.0
aF0.02
aF0.0
ag3
(g7
S'\x00\x00\x00\x00\x00\x00\x00\x00'
p80
tp81
Rp82
aF1.0
aF0.0006
aF0.0748
aF0.2584
aF0.0074
aF0.0
aF0.0606
aF0.0034
aF0.0037
aF0.0
aF0.0
aF0.0
aF0.0
aF0.0
aF0.0
aF0.0
asS'ts_s_imm_2_denominator'
p83
(lp84
F0.0
aF0.02
aF0.0
ag3
(g7
S'\x00\x00\x00\x00\x00\x00\x00\x00'
p85
tp86
Rp87
aF1.0
aF0.0006
aF0.0619
aF0.2118
aF0.018
aF0.0003
aF0.071
aF0.0174
aF0.0179
aF0.0
aF0.0
aF0.0
aF0.0
aF0.0
aF0.0
aF0.0
asS'ts_s_hbips_2_overall_num'
p88
(lp89
F0.0
aF0.02
aF0.0
ag3
(g7
S'\x00\x00\x00\x00\x00\x00\x00\x00'
p90
tp91
Rp92
aF1.0
aF0.0006
aF0.1372
aF0.3447
aF0.0164
aF0.0008
aF0.133
aF0.0019
aF0.0356
aF0.0
aF0.0
aF0.0
aF0.0
aF0.0
aF0.0
aF0.0
asS'ts_s_fuh_7_percentage'
p93
(lp94
F0.0
aF0.01
aF0.0
ag3
(g7
S'\x00\x00\x00\x00\x00\x00\x00\x00'
p95
tp96
Rp97
aF0.0
aF0.0001
aF0.0
aF0.0
aF0.0001
aF0.0
aF0.0155
aF0.0006
aF0.0
aF0.0
aF0.0
aF0.0
aF0.0
aF0.0
aF0.0
aF0.0
asS'ts_s_peoc_yes_count'
p98
(lp99
F0.25
aF0.008
aF0.0
ag3
(g7
S'\x00\x00\x00\x00\x00\x00\x00\x00'
p100
tp101
Rp102
aF0.0
aF0.0001
aF0.0967
aF0.42
aF0.0
aF0.0
aF0.0571
aF0.0001
aF0.0
aF0.0
aF0.0
aF0.0
aF0.0
aF0.0
aF0.0
aF0.0
asS'ts_s_flu_season_end_date'
p103
(lp104
F1.0
aF0.008
aF0.0
ag3
(g7
S'\x00\x00\x00\x00\x00\x00\x00\x00'
p105
tp106
Rp107
aF0.0
aF0.0006
aF0.0
aF0.0
aF0.0
aF0.0
aF0.0
aF0.0
aF0.0
aF0.0
aF0.8681
aF1.0
aF0.2
aF1.0
aF0.0
aF0.0
asS'ts_s_imm_2_numerator'
p108
(lp109
F0.0
aF0.02
aF0.0
ag3
(g7
S'\x00\x00\x00\x00\x00\x00\x00\x00'
p110
tp111
Rp112
aF1.0
aF0.0006
aF0.0688
aF0.2324
aF0.0128
aF0.0001
aF0.0604
aF0.0107
aF0.0076
aF0.0
aF0.0
aF0.0
aF0.0
aF0.0
aF0.0
aF0.0
asS'ts_s_hbips_6_overall_percentage_of_total'
p113
(lp114
F0.0
aF0.01
aF0.0
ag3
(g7
S'\x00\x00\x00\x00\x00\x00\x00\x00'
p115
tp116
Rp117
aF0.0
aF0.0001
aF0.0
aF0.0
aF0.0002
aF0.0
aF0.0071
aF0.0014
aF0.0
aF0.0
aF0.0
aF0.0
aF0.0
aF0.0
aF0.0
aF0.0
asS'ts_s_hcp_denominator'
p118
(lp119
F0.0
aF0.02
aF0.0
ag3
(g7
S'\x00\x00\x00\x00\x00\x00\x00\x00'
p120
tp121
Rp122
aF1.0
aF0.0008
aF0.0517
aF0.148
aF0.3538
aF0.088
aF0.0628
aF0.2371
aF0.2616
aF0.0
aF0.0
aF0.0
aF0.0
aF0.0
aF0.0
aF0.0
asS'ts_s_tob_2_2a__denominator'
p123
(lp124
F0.0
aF0.02
aF0.0
ag3
(g7
S'\x00\x00\x00\x00\x00\x00\x00\x00'
p125
tp126
Rp127
aF1.0
aF0.0006
aF0.0657
aF0.2284
aF0.012
aF0.0001
aF0.0648
aF0.0048
aF0.0085
aF0.0
aF0.0
aF0.0
aF0.0
aF0.0
aF0.0
aF0.0
asS'ts_s_ehr_paper_percentage'
p128
(lp129
F0.0
aF0.01
aF0.0
ag3
(g7
S'\x00\x00\x00\x00\x00\x00\x00\x00'
p130
tp131
Rp132
aF0.0
aF0.0002
aF0.0069
aF0.1047
aF0.0001
aF0.0
aF0.0156
aF0.0007
aF0.0
aF0.0
aF0.0
aF0.0
aF0.0
aF0.0
aF0.0
aF0.0
asS'ts_s_ehr_non_certified_count'
p133
(lp134
F0.25
aF0.008
aF0.0
ag3
(g7
S'\x00\x00\x00\x00\x00\x00\x00\x00'
p135
tp136
Rp137
aF0.0
aF0.0001
aF0.0
aF0.0
aF0.0
aF0.0
aF0.077
aF0.0
aF0.0
aF0.0
aF0.0
aF0.0
aF0.0
aF0.0
aF0.0
aF0.0
asS'ts_s_peoc_no_percentage'
p138
(lp139
F0.0
aF0.01
aF0.0
ag3
(g7
S'\x00\x00\x00\x00\x00\x00\x00\x00'
p140
tp141
Rp142
aF0.0
aF0.0001
aF0.0519
aF0.319
aF0.0
aF0.0
aF0.0378
aF0.0
aF0.0
aF0.0
aF0.0
aF0.0
aF0.0
aF0.0
aF0.0
aF0.0
asS'ts_s_hbips_7_overall_percentage_of_total'
p143
(lp144
F0.0
aF0.01
aF0.0
ag3
(g7
S'\x00\x00\x00\x00\x00\x00\x00\x00'
p145
tp146
Rp147
aF0.0
aF0.0001
aF0.0
aF0.0
aF0.0002
aF0.0
aF0.0085
aF0.0013
aF0.0
aF0.0
aF0.0
aF0.0
aF0.0
aF0.0
aF0.0
aF0.0
asS'ts_s_tob_1_percentage'
p148
(lp149
F0.0
aF0.01
aF0.0
ag3
(g7
S'\x00\x00\x00\x00\x00\x00\x00\x00'
p150
tp151
Rp152
aF0.0
aF0.0001
aF0.0
aF0.0
aF0.0002
aF0.0
aF0.0052
aF0.0023
aF0.0
aF0.0
aF0.0
aF0.0
aF0.0
aF0.0
aF0.0
aF0.0
asS'ts_s_sub_1_measure_description'
p153
(lp154
F0.5
aF1.0
aF0.0
ag3
(g7
S'\x00\x00\x00\x00\x00\x00\x00\x00'
p155
tp156
Rp157
aF0.0
aF0.1567
aF0.0
aF0.0
aF0.0
aF0.0
aF0.0
aF0.0
aF0.0
aF0.5237
aF0.4132
aF0.0
aF1.0
aF0.0
aF0.0
aF0.0
asS'ts_s_ehr_certified_count'
p158
(lp159
F0.25
aF0.008
aF0.0
ag3
(g7
S'\x00\x00\x00\x00\x00\x00\x00\x00'
p160
tp161
Rp162
aF0.0
aF0.0001
aF0.1134
aF0.5133
aF0.0
aF0.0
aF0.0531
aF0.0
aF0.0
aF0.0
aF0.0
aF0.0
aF0.0
aF0.0
aF0.0
aF0.0
asS'ts_s_hie_yes_count'
p163
(lp164
F0.25
aF0.008
aF0.0
ag3
(g7
S'\x00\x00\x00\x00\x00\x00\x00\x00'
p165
tp166
Rp167
aF0.0
aF0.0001
aF0.112
aF0.5304
aF0.0
aF0.0
aF0.0568
aF0.0
aF0.0
aF0.0
aF0.0
aF0.0
aF0.0
aF0.0
aF0.0
aF0.0
asS'ts_s_hbips_6_overall_num'
p168
(lp169
F0.0
aF0.02
aF0.0
ag3
(g7
S'\x00\x00\x00\x00\x00\x00\x00\x00'
p170
tp171
Rp172
aF1.0
aF0.0007
aF0.0523
aF0.183
aF0.0283
aF0.0005
aF0.0596
aF0.0292
aF0.0165
aF0.0
aF0.0
aF0.0
aF0.0
aF0.0
aF0.0
aF0.0
asS'ts_s_hbips_2_overall_den'
p173
(lp174
F0.0
aF0.02
aF0.0
ag3
(g7
S'\x00\x00\x00\x00\x00\x00\x00\x00'
p175
tp176
Rp177
aF1.0
aF0.0009
aF0.0626
aF0.1517
aF1.0
aF1.0
aF0.0749
aF1.0
aF1.0
aF0.0
aF0.0
aF0.0
aF0.0
aF0.0
aF0.0
aF0.0
asS'ts_s_hbips_6_overall_den'
p178
(lp179
F0.0
aF0.02
aF0.0
ag3
(g7
S'\x00\x00\x00\x00\x00\x00\x00\x00'
p180
tp181
Rp182
aF1.0
aF0.0007
aF0.0523
aF0.183
aF0.0334
aF0.0008
aF0.0616
aF0.0305
aF0.0196
aF0.0
aF0.0
aF0.0
aF0.0
aF0.0
aF0.0
aF0.0
asS'ts_s_fuh_measure_end_date'
p183
(lp184
F1.0
aF0.008
aF0.0
ag3
(g7
S'\x00\x00\x00\x00\x00\x00\x00\x00'
p185
tp186
Rp187
aF0.0
aF0.0006
aF0.0
aF0.0
aF0.0
aF0.0
aF0.0
aF0.0
aF0.0
aF0.0
aF0.8681
aF1.0
aF0.2
aF1.0
aF0.0
aF0.0
asS'ts_s_tob_1_denominator'
p188
(lp189
F0.0
aF0.02
aF0.0
ag3
(g7
S'\x00\x00\x00\x00\x00\x00\x00\x00'
p190
tp191
Rp192
aF1.0
aF0.0007
aF0.0577
aF0.1971
aF0.0262
aF0.0005
aF0.0648
aF0.0149
aF0.0198
aF0.0
aF0.0
aF0.0
aF0.0
aF0.0
aF0.0
aF0.0
asS'ts_s_tob_2_percentage'
p193
(lp194
F0.0
aF0.01
aF0.0
ag3
(g7
S'\x00\x00\x00\x00\x00\x00\x00\x00'
p195
tp196
Rp197
aF0.0
aF0.0001
aF0.0
aF0.0
aF0.0001
aF0.0
aF0.0147
aF0.0007
aF0.0
aF0.0
aF0.0
aF0.0
aF0.0
aF0.0
aF0.0
aF0.0
asS'ts_s_hcp_measure_description'
p198
(lp199
F0.5
aF1.0
aF0.0
ag3
(g7
S'\x00\x00\x00\x00\x00\x00\x00\x00'
p200
tp201
Rp202
aF0.0
aF0.3134
aF0.0
aF0.0
aF0.0
aF0.0
aF0.0
aF0.0
aF0.0
aF0.3927
aF0.3099
aF0.0
aF1.0
aF0.0
aF0.0
aF0.0
asS'ts_s_hbips_5_overall_den'
p203
(lp204
F0.0
aF0.02
aF0.0
ag3
(g7
S'\x00\x00\x00\x00\x00\x00\x00\x00'
p205
tp206
Rp207
aF1.0
aF0.0005
aF0.0791
aF0.3166
aF0.002
aF0.0
aF0.077
aF0.0005
aF0.0018
aF0.0
aF0.0
aF0.0
aF0.0
aF0.0
aF0.0
aF0.0
asS'ts_state'
p208
(lp209
F0.5
aF0.004
aF1.0
ag3
(g7
S'\x00\x00\x00\x00\x00\x00\x00\x00'
p210
tp211
Rp212
aF1.0
aF0.0001
aF0.0
aF0.0
aF0.0
aF0.0
aF0.0
aF0.0
aF0.0
aF0.0
aF0.0
aF0.0
aF1.0
aF0.0
aF0.0
aF0.0
asS'ts_s_flu_season_start_date'
p213
(lp214
F1.0
aF0.008
aF0.0
ag3
(g7
S'\x00\x00\x00\x00\x00\x00\x00\x00'
p215
tp216
Rp217
aF0.0
aF0.0006
aF0.0
aF0.0
aF0.0
aF0.0
aF0.0
aF0.0
aF0.0
aF0.0
aF0.8681
aF1.0
aF0.2
aF1.0
aF0.0
aF0.0
asS'ts_s_fuh_30_numerator'
p218
(lp219
F0.0
aF0.02
aF0.0
ag3
(g7
S'\x00\x00\x00\x00\x00\x00\x00\x00'
p220
tp221
Rp222
aF1.0
aF0.0005
aF0.0593
aF0.2501
aF0.0037
aF0.0
aF0.064
aF0.0013
aF0.0021
aF0.0
aF0.0
aF0.0
aF0.0
aF0.0
aF0.0
aF0.0
asS'ts_s_hbips_3_overall_rate_per_1000'
p223
(lp224
F0.0
aF1.0
aF0.0
ag3
(g7
S'\x00\x00\x00\x00\x00\x00\x00\x00'
p225
tp226
Rp227
aF0.0
aF0.0075
aF0.0
aF0.0
aF0.0
aF0.0
aF0.1536
aF0.0
aF0.0
aF0.0
aF0.0
aF0.0
aF0.0
aF0.0
aF0.0
aF0.0
asS'ts_s_ehr_use_measure_description'
p228
(lp229
F0.5
aF1.0
aF0.0
ag3
(g7
S'\x00\x00\x00\x00\x00\x00\x00\x00'
p230
tp231
Rp232
aF0.0
aF0.3134
aF0.0
aF0.0
aF0.0
aF0.0
aF0.0
aF0.0
aF0.0
aF0.9169
aF0.7235
aF0.0
aF1.0
aF0.0
aF0.0
aF0.0
asS'ts_s_hbips_7_measure_description'
p233
(lp234
F0.5
aF1.0
aF0.0
ag3
(g7
S'\x00\x00\x00\x00\x00\x00\x00\x00'
p235
tp236
Rp237
aF0.0
aF0.7239
aF0.0
aF0.0
aF0.0
aF0.0
aF0.0
aF0.0
aF0.0
aF0.7371
aF0.6263
aF0.0
aF1.0
aF0.0
aF0.0
aF0.3189
asS'ts_s_sub_1_denominator'
p238
(lp239
F0.0
aF0.02
aF0.0
ag3
(g7
S'\x00\x00\x00\x00\x00\x00\x00\x00'
p240
tp241
Rp242
aF1.0
aF0.0007
aF0.0639
aF0.2084
aF0.0253
aF0.0004
aF0.0602
aF0.015
aF0.0139
aF0.0
aF0.0
aF0.0
aF0.0
aF0.0
aF0.0
aF0.0
asS'ts_s_fuh_30_denominator'
p243
(lp244
F0.0
aF0.02
aF0.0
ag3
(g7
S'\x00\x00\x00\x00\x00\x00\x00\x00'
p245
tp246
Rp247
aF1.0
aF0.0006
aF0.0608
aF0.233
aF0.0069
aF0.0
aF0.0646
aF0.0022
aF0.0042
aF0.0
aF0.0
aF0.0
aF0.0
aF0.0
aF0.0
aF0.0
asS'ts_s_ehr_non_certified_percentage'
p248
(lp249
F0.0
aF0.01
aF0.0
ag3
(g7
S'\x00\x00\x00\x00\x00\x00\x00\x00'
p250
tp251
Rp252
aF0.0
aF0.0001
aF0.0316
aF0.4141
aF0.0
aF0.0
aF0.0995
aF0.0
aF0.0
aF0.0
aF0.0
aF0.0
aF0.0
aF0.0
aF0.0
aF0.0
asS'ts_s_fuh_30_percentage'
p253
(lp254
F0.0
aF0.01
aF0.0
ag3
(g7
S'\x00\x00\x00\x00\x00\x00\x00\x00'
p255
tp256
Rp257
aF0.0
aF0.0001
aF0.0
aF0.0
aF0.0001
aF0.0
aF0.0109
aF0.0009
aF0.0
aF0.0
aF0.0
aF0.0
aF0.0
aF0.0
aF0.0
aF0.0
asS'ts_s_hcp_numerator'
p258
(lp259
F0.0
aF0.02
aF0.0
ag3
(g7
S'\x00\x00\x00\x00\x00\x00\x00\x00'
p260
tp261
Rp262
aF1.0
aF0.0008
aF0.0523
aF0.1505
aF0.3024
aF0.061
aF0.0612
aF0.1547
aF0.2147
aF0.0
aF0.0
aF0.0
aF0.0
aF0.0
aF0.0
aF0.0
asS'ts_s_hbips_3_overall_den'
p263
(lp264
F0.0
aF0.02
aF0.0
ag3
(g7
S'\x00\x00\x00\x00\x00\x00\x00\x00'
p265
tp266
Rp267
aF1.0
aF0.0009
aF0.0626
aF0.1517
aF0.9775
aF0.9539
aF0.0749
aF1.0
aF0.9887
aF0.0
aF0.0
aF0.0
aF0.0
aF0.0
aF0.0
aF0.0
asS'ts_tob_2_2a_measure_desc'
p268
(lp269
F0.5
aF1.0
aF0.0
ag3
(g7
S'\x00\x00\x00\x00\x00\x00\x00\x00'
p270
tp271
Rp272
aF0.0
aF0.316
aF0.0276
aF0.1003
aF0.0
aF0.0
aF0.0
aF0.0
aF0.0
aF0.6744
aF0.5716
aF0.0
aF1.0
aF0.0
aF0.2163
aF0.0
asS'ts_s_fuh_measure_description'
p273
(lp274
F0.5
aF1.0
aF0.0
ag3
(g7
S'\x00\x00\x00\x00\x00\x00\x00\x00'
p275
tp276
Rp277
aF0.0
aF1.0
aF0.0
aF0.0
aF0.0
aF0.0
aF0.0
aF0.0
aF0.0
aF0.78
aF0.842
aF0.056
aF0.9552
aF0.0
aF0.7163
aF0.6935
asS'ts_s_hbips_5_overall_percentage_of_total'
p278
(lp279
F0.0
aF0.01
aF0.0
ag3
(g7
S'\x00\x00\x00\x00\x00\x00\x00\x00'
p280
tp281
Rp282
aF0.0
aF0.0001
aF0.0
aF0.0
aF0.0001
aF0.0
aF0.0164
aF0.0008
aF0.0
aF0.0
aF0.0
aF0.0
aF0.0
aF0.0
aF0.0
aF0.0
asS'ts_s_hie_no_percent'
p283
(lp284
F0.0
aF1.0
aF0.0
ag3
(g7
S'\x00\x00\x00\x00\x00\x00\x00\x00'
p285
tp286
Rp287
aF0.0
aF0.0152
aF0.0002
aF0.1452
aF0.0001
aF0.0
aF0.0135
aF0.0011
aF0.0
aF0.0
aF0.0
aF0.0
aF0.0
aF0.0
aF0.0
aF0.0
asS'ts_end_date'
p288
(lp289
F1.0
aF0.008
aF0.0
ag3
(g7
S'\x00\x00\x00\x00\x00\x00\x00\x00'
p290
tp291
Rp292
aF0.0
aF0.0006
aF0.0
aF0.0
aF0.0
aF0.0
aF0.0
aF0.0
aF0.0
aF0.0
aF0.8681
aF1.0
aF0.2
aF1.0
aF0.0
aF0.0
asS'ts_s_hbips_3_measure_description'
p293
(lp294
F0.5
aF1.0
aF0.0
ag3
(g7
S'\x00\x00\x00\x00\x00\x00\x00\x00'
p295
tp296
Rp297
aF0.0
aF0.1343
aF0.0
aF0.0
aF0.0
aF0.0
aF0.0
aF0.0
aF0.0
aF0.6111
aF0.4822
aF0.0
aF1.0
aF0.0
aF0.0
aF0.0
asS'ts_s_hie_measure_description'
p298
(lp299
F0.5
aF1.0
aF0.0
ag3
(g7
S'\x00\x00\x00\x00\x00\x00\x00\x00'
p300
tp301
Rp302
aF0.0
aF0.3881
aF0.0
aF0.0
aF0.0
aF0.0
aF0.0
aF0.0
aF0.0
aF0.5292
aF0.4175
aF0.0
aF1.0
aF0.0
aF0.0
aF0.0
asS'ts_s_hie_no_count'
p303
(lp304
F0.25
aF0.008
aF0.0
ag3
(g7
S'\x00\x00\x00\x00\x00\x00\x00\x00'
p305
tp306
Rp307
aF0.0
aF0.0001
aF0.1074
aF0.4639
aF0.0
aF0.0
aF0.0565
aF0.0001
aF0.0
aF0.0
aF0.0
aF0.0
aF0.0
aF0.0
aF0.0
aF0.0
asS'ts_s_hie_yes_percent'
p308
(lp309
F0.0
aF1.0
aF0.0
ag3
(g7
S'\x00\x00\x00\x00\x00\x00\x00\x00'
p310
tp311
Rp312
aF0.0
aF0.0146
aF0.0002
aF0.1509
aF0.0001
aF0.0
aF0.0244
aF0.0
aF0.0
aF0.0
aF0.0
aF0.0
aF0.0
aF0.0
aF0.0
aF0.0
asS'ts_s_hbips_6_measure_description'
p313
(lp314
F0.5
aF1.0
aF0.0
ag3
(g7
S'\x00\x00\x00\x00\x00\x00\x00\x00'
p315
tp316
Rp317
aF0.0
aF0.3209
aF0.0
aF0.0
aF0.0
aF0.0
aF0.0
aF0.0
aF0.0
aF0.5116
aF0.5048
aF0.0
aF1.0
aF0.0
aF0.0
aF0.7214
asS'ts_s_hbips_5_measure_description'
p318
(lp319
F0.5
aF1.0
aF0.0
ag3
(g7
S'\x00\x00\x00\x00\x00\x00\x00\x00'
p320
tp321
Rp322
aF0.0
aF0.6567
aF0.0
aF0.0
aF0.0
aF0.0
aF0.0
aF0.0
aF0.0
aF0.5
aF0.3945
aF0.0
aF1.0
aF0.0
aF0.0
aF0.0
asS'ts_s_tob_2_2a_denominator'
p323
(lp324
F0.0
aF0.02
aF0.0
ag3
(g7
S'\x00\x00\x00\x00\x00\x00\x00\x00'
p325
tp326
Rp327
aF1.0
aF0.0006
aF0.0657
aF0.2284
aF0.012
aF0.0001
aF0.0648
aF0.0048
aF0.0085
aF0.0
aF0.0
aF0.0
aF0.0
aF0.0
aF0.0
aF0.0
asS'ts_s_hbips_2_measure_description'
p328
(lp329
F0.5
aF1.0
aF0.0
ag3
(g7
S'\x00\x00\x00\x00\x00\x00\x00\x00'
p330
tp331
Rp332
aF0.0
aF0.2313
aF0.0
aF0.0
aF0.0
aF0.0
aF0.0
aF0.0
aF0.0
aF0.5325
aF0.5599
aF0.0
aF1.0
aF0.0
aF0.0
aF1.0
asS'ts_s_ehr_certified_percentage'
p333
(lp334
F0.0
aF0.01
aF0.0
ag3
(g7
S'\x00\x00\x00\x00\x00\x00\x00\x00'
p335
tp336
Rp337
aF0.0
aF0.0001
aF0.0134
aF0.1509
aF0.0001
aF0.0
aF0.0254
aF0.0
aF0.0
aF0.0
aF0.0
aF0.0
aF0.0
aF0.0
aF0.0
aF0.0
asS'ts_s_hcp_percentage'
p338
(lp339
F0.0
aF0.01
aF0.0
ag3
(g7
S'\x00\x00\x00\x00\x00\x00\x00\x00'
p340
tp341
Rp342
aF0.0
aF0.0001
aF0.0
aF0.0
aF0.0002
aF0.0
aF0.0051
aF0.0023
aF0.0
aF0.0
aF0.0
aF0.0
aF0.0
aF0.0
aF0.0
aF0.0
asS'ts_s_ehr_paper_count'
p343
(lp344
F0.25
aF0.008
aF0.0
ag3
(g7
S'\x00\x00\x00\x00\x00\x00\x00\x00'
p345
tp346
Rp347
aF0.0
aF0.0001
aF0.112
aF0.491
aF0.0
aF0.0
aF0.0597
aF0.0
aF0.0
aF0.0
aF0.0
aF0.0
aF0.0
aF0.0
aF0.0
aF0.0
asS'ts_s_hbips_3_overall_num'
p348
(lp349
F0.0
aF0.02
aF0.0
ag3
(g7
S'\x00\x00\x00\x00\x00\x00\x00\x00'
p350
tp351
Rp352
aF1.0
aF0.0006
aF0.1049
aF0.3076
aF0.0114
aF0.0007
aF0.1789
aF0.0024
aF0.0353
aF0.0
aF0.0
aF0.0
aF0.0
aF0.0
aF0.0
aF0.0
asS'ts_s_hbips_5_overall_num'
p353
(lp354
F0.0
aF0.02
aF0.0
ag3
(g7
S'\x00\x00\x00\x00\x00\x00\x00\x00'
p355
tp356
Rp357
aF1.0
aF0.0004
aF0.0802
aF0.3434
aF0.0012
aF0.0
aF0.0719
aF0.0001
aF0.001
aF0.0
aF0.0
aF0.0
aF0.0
aF0.0
aF0.0
aF0.0
asS'ts_s_fuh_7_denominator'
p358
(lp359
F0.0
aF0.02
aF0.0
ag3
(g7
S'\x00\x00\x00\x00\x00\x00\x00\x00'
p360
tp361
Rp362
aF1.0
aF0.0006
aF0.0608
aF0.233
aF0.0069
aF0.0
aF0.0646
aF0.0022
aF0.0042
aF0.0
aF0.0
aF0.0
aF0.0
aF0.0
aF0.0
aF0.0
asS'ts_s_imm_2_percentage'
p363
(lp364
F0.0
aF0.01
aF0.0
ag3
(g7
S'\x00\x00\x00\x00\x00\x00\x00\x00'
p365
tp366
Rp367
aF0.0
aF0.0001
aF0.0
aF0.0
aF0.0001
aF0.0
aF0.0105
aF0.0012
aF0.0
aF0.0
aF0.0
aF0.0
aF0.0
aF0.0
aF0.0
aF0.0
asS'ts_s_hbips_2_overall_rate_per_1000'
p368
(lp369
F0.0
aF1.0
aF0.0
ag3
(g7
S'\x00\x00\x00\x00\x00\x00\x00\x00'
p370
tp371
Rp372
aF0.0
aF0.0075
aF0.0
aF0.0
aF0.0
aF0.0
aF0.0962
aF0.0
aF0.0
aF0.0
aF0.0
aF0.0
aF0.0
aF0.0
aF0.0
aF0.0
asS'ts_s_tob_1_measure_description'
p373
(lp374
F0.5
aF1.0
aF0.0
ag3
(g7
S'\x00\x00\x00\x00\x00\x00\x00\x00'
p375
tp376
Rp377
aF0.0
aF0.1567
aF0.0
aF0.0
aF0.0
aF0.0
aF0.0
aF0.0
aF0.0
aF0.5237
aF0.4132
aF0.0
aF1.0
aF0.0
aF0.0
aF0.0
asS'ts_s_peoc_yes_percentage'
p378
(lp379
F0.0
aF0.01
aF0.0
ag3
(g7
S'\x00\x00\x00\x00\x00\x00\x00\x00'
p380
tp381
Rp382
aF0.0
aF0.0002
aF0.037
aF0.2326
aF0.0001
aF0.0
aF0.012
aF0.0018
aF0.0
aF0.0
aF0.0
aF0.0
aF0.0
aF0.0
aF0.0
aF0.0
asS'ts_s_fuh_7_numerator'
p383
(lp384
F0.0
aF0.02
aF0.0
ag3
(g7
S'\x00\x00\x00\x00\x00\x00\x00\x00'
p385
tp386
Rp387
aF1.0
aF0.0005
aF0.069
aF0.292
aF0.0021
aF0.0
aF0.0674
aF0.0006
aF0.0014
aF0.0
aF0.0
aF0.0
aF0.0
aF0.0
aF0.0
aF0.0
as.