ccollections
defaultdict
p0
(cdill.dill
_create_function
p1
(cdill.dill
_load_type
p2
(S'CodeType'
p3
tp4
Rp5
(I0
I0
I1
I67
S't\x00\x00\x83\x00\x00S'
p6
(Ntp7
(S'defaultdict'
p8
tp9
(tS'Run_me.py'
p10
S'<lambda>'
p11
I209
S''
p12
(t(ttp13
Rp14
c__main__
__dict__
g11
NN(dp15
tp16
Rp17
tp18
Rp19
I0
g0
(tRp20
S'tr_tob_2_2a_measure_desc'
p21
(lp22
F0.5
aF1.0
aF0.0
acnumpy.core.multiarray
scalar
p23
(cnumpy
dtype
p24
(S'f8'
p25
I0
I1
tp26
Rp27
(I3
S'<'
p28
NNNI-1
I-1
I0
tp29
bS'\x00\x00\x00\x00\x00\x00\x00\x00'
p30
tp31
Rp32
aF0.0
aF0.0384
aF0.0
aF0.0
aF0.0
aF0.0
aF0.0
aF0.0
aF0.0
aF0.6876
aF0.7235
aF0.0
aF1.0
aF0.0
aF1.0
aF0.0
asS'tr_fuh_measure_description'
p33
(lp34
F0.5
aF1.0
aF0.0
ag23
(g27
S'\x00\x00\x00\x00\x00\x00\x00\x00'
p35
tp36
Rp37
aF0.0
aF0.1072
aF0.0
aF0.0
aF0.0
aF0.0
aF0.0
aF0.0
aF0.0
aF0.78
aF0.842
aF0.056
aF0.9552
aF0.0
aF0.7163
aF0.6935
asS'ts_s_fuh_measure_description'
p38
(lp39
F0.5
aF1.0
aF0.0
ag23
(g27
S'\x00\x00\x00\x00\x00\x00\x00\x00'
p40
tp41
Rp42
aF0.0
aF0.1072
aF0.0
aF0.0
aF0.0
aF0.0
aF0.0
aF0.0
aF0.0
aF0.78
aF0.842
aF0.056
aF0.9552
aF0.0
aF0.7163
aF0.6935
assI1
g0
(tRp43
S'tr_hbips_6_measure_description'
p44
(lp45
F0.5
aF1.0
aF0.0
ag23
(g27
S'\x00\x00\x00\x00\x00\x00\x00\x00'
p46
tp47
Rp48
aF0.0
aF0.0344
aF0.0
aF0.0
aF0.0
aF0.0
aF0.0
aF0.0
aF0.0
aF0.5116
aF0.5048
aF0.0
aF1.0
aF0.0
aF0.0
aF0.7214
asS'ts_s_hbips_6_measure_description'
p49
(lp50
F0.5
aF1.0
aF0.0
ag23
(g27
S'\x00\x00\x00\x00\x00\x00\x00\x00'
p51
tp52
Rp53
aF0.0
aF0.0344
aF0.0
aF0.0
aF0.0
aF0.0
aF0.0
aF0.0
aF0.0
aF0.5116
aF0.5048
aF0.0
aF1.0
aF0.0
aF0.0
aF0.7214
asS'tr_hbips_2_measure_description'
p54
(lp55
F0.5
aF1.0
aF0.0
ag23
(g27
S'\x00\x00\x00\x00\x00\x00\x00\x00'
p56
tp57
Rp58
aF0.0
aF0.0248
aF0.0
aF0.0
aF0.0
aF0.0
aF0.0
aF0.0
aF0.0
aF0.5325
aF0.5599
aF0.0
aF1.0
aF0.0
aF0.0
aF1.0
asS'ts_s_hbips_2_measure_description'
p59
(lp60
F0.5
aF1.0
aF0.0
ag23
(g27
S'\x00\x00\x00\x00\x00\x00\x00\x00'
p61
tp62
Rp63
aF0.0
aF0.0248
aF0.0
aF0.0
aF0.0
aF0.0
aF0.0
aF0.0
aF0.0
aF0.5325
aF0.5599
aF0.0
aF1.0
aF0.0
aF0.0
aF1.0
assI2
g0
(tRp64
S'ts_s_hbips_7_measure_description'
p65
(lp66
F0.5
aF1.0
aF0.0
ag23
(g27
S'\x00\x00\x00\x00\x00\x00\x00\x00'
p67
tp68
Rp69
aF0.0
aF0.0776
aF0.0
aF0.0
aF0.0
aF0.0
aF0.0
aF0.0
aF0.0
aF0.7371
aF0.6263
aF0.0
aF1.0
aF0.0
aF0.0
aF0.3189
asS'tr_hbips_7_measure_description'
p70
(lp71
F0.5
aF1.0
aF0.0
ag23
(g27
S'\x00\x00\x00\x00\x00\x00\x00\x00'
p72
tp73
Rp74
aF0.0
aF0.0776
aF0.0
aF0.0
aF0.0
aF0.0
aF0.0
aF0.0
aF0.0
aF0.7371
aF0.6263
aF0.0
aF1.0
aF0.0
aF0.0
aF0.3189
asS'tr_ehr_use_measure_description'
p75
(lp76
F0.5
aF1.0
aF0.0
ag23
(g27
S'\x00\x00\x00\x00\x00\x00\x00\x00'
p77
tp78
Rp79
aF0.0
aF0.0272
aF0.0
aF0.0
aF0.0
aF0.0
aF0.0
aF0.0
aF0.0
aF0.8091
aF0.6385
aF0.0
aF1.0
aF0.0
aF0.0
aF0.0
asS'ts_s_ehr_use_measure_description'
p80
(lp81
F0.5
aF1.0
aF0.0
ag23
(g27
S'\x00\x00\x00\x00\x00\x00\x00\x00'
p82
tp83
Rp84
aF0.0
aF0.0336
aF0.0
aF0.0
aF0.0
aF0.0
aF0.0
aF0.0
aF0.0
aF0.9169
aF0.7235
aF0.0
aF1.0
aF0.0
aF0.0
aF0.0
assI5
g0
(tRp85
S'ts_s_hbips_5_measure_description'
p86
(lp87
F0.5
aF1.0
aF0.0
ag23
(g27
S'\x00\x00\x00\x00\x00\x00\x00\x00'
p88
tp89
Rp90
aF0.0
aF0.0704
aF0.0
aF0.0
aF0.0
aF0.0
aF0.0
aF0.0
aF0.0
aF0.5
aF0.3945
aF0.0
aF1.0
aF0.0
aF0.0
aF0.0
asS'tr_hbips_5_measure_description'
p91
(lp92
F0.5
aF1.0
aF0.0
ag23
(g27
S'\x00\x00\x00\x00\x00\x00\x00\x00'
p93
tp94
Rp95
aF0.0
aF0.0704
aF0.0
aF0.0
aF0.0
aF0.0
aF0.0
aF0.0
aF0.0
aF0.5
aF0.3945
aF0.0
aF1.0
aF0.0
aF0.0
aF0.0
asS'ts_s_hbips_3_measure_description'
p96
(lp97
F0.5
aF1.0
aF0.0
ag23
(g27
S'\x00\x00\x00\x00\x00\x00\x00\x00'
p98
tp99
Rp100
aF0.0
aF0.0144
aF0.0
aF0.0
aF0.0
aF0.0
aF0.0
aF0.0
aF0.0
aF0.6111
aF0.4822
aF0.0
aF1.0
aF0.0
aF0.0
aF0.0
asS'tr_hbips_3_measure_description'
p101
(lp102
F0.5
aF1.0
aF0.0
ag23
(g27
S'\x00\x00\x00\x00\x00\x00\x00\x00'
p103
tp104
Rp105
aF0.0
aF0.0144
aF0.0
aF0.0
aF0.0
aF0.0
aF0.0
aF0.0
aF0.0
aF0.6111
aF0.4822
aF0.0
aF1.0
aF0.0
aF0.0
aF0.0
asS'tr_sub_1_measure_description'
p106
(lp107
F0.5
aF1.0
aF0.0
ag23
(g27
S'\x00\x00\x00\x00\x00\x00\x00\x00'
p108
tp109
Rp110
aF0.0
aF0.0168
aF0.0
aF0.0
aF0.0
aF0.0
aF0.0
aF0.0
aF0.0
aF0.5237
aF0.4132
aF0.0
aF1.0
aF0.0
aF0.0
aF0.0
asS'ts_s_hie_measure_description'
p111
(lp112
F0.5
aF1.0
aF0.0
ag23
(g27
S'\x00\x00\x00\x00\x00\x00\x00\x00'
p113
tp114
Rp115
aF0.0
aF0.0416
aF0.0
aF0.0
aF0.0
aF0.0
aF0.0
aF0.0
aF0.0
aF0.5292
aF0.4175
aF0.0
aF1.0
aF0.0
aF0.0
aF0.0
asS'tr_peoc_measure_description'
p116
(lp117
F0.5
aF1.0
aF0.0
ag23
(g27
S'\x00\x00\x00\x00\x00\x00\x00\x00'
p118
tp119
Rp120
aF0.0
aF0.032
aF0.0
aF0.0
aF0.0
aF0.0
aF0.0
aF0.0
aF0.0
aF0.6876
aF0.5425
aF0.0
aF1.0
aF0.0
aF0.0
aF0.0
asS'ts_s_imm_2_measure_description'
p121
(lp122
F0.5
aF1.0
aF0.0
ag23
(g27
S'\x00\x00\x00\x00\x00\x00\x00\x00'
p123
tp124
Rp125
aF0.0
aF0.0176
aF0.0
aF0.0
aF0.0
aF0.0
aF0.0
aF0.0
aF0.0
aF0.2503
aF0.1975
aF0.0
aF1.0
aF0.0
aF0.0
aF0.0
asS'ts_s_sub_1_measure_description'
p126
(lp127
F0.5
aF1.0
aF0.0
ag23
(g27
S'\x00\x00\x00\x00\x00\x00\x00\x00'
p128
tp129
Rp130
aF0.0
aF0.0168
aF0.0
aF0.0
aF0.0
aF0.0
aF0.0
aF0.0
aF0.0
aF0.5237
aF0.4132
aF0.0
aF1.0
aF0.0
aF0.0
aF0.0
asS'ts_tob_2_2a_measure_desc'
p131
(lp132
F0.5
aF1.0
aF0.0
ag23
(g27
S'\x00\x00\x00\x00\x00\x00\x00\x00'
p133
tp134
Rp135
aF0.0
aF0.0339
aF0.0276
aF0.1003
aF0.0
aF0.0
aF0.0
aF0.0
aF0.0
aF0.6744
aF0.5716
aF0.0
aF1.0
aF0.0
aF0.2163
aF0.0
asS'ts_s_peoc_measure_description'
p136
(lp137
F0.5
aF1.0
aF0.0
ag23
(g27
S'\x00\x00\x00\x00\x00\x00\x00\x00'
p138
tp139
Rp140
aF0.0
aF0.032
aF0.0
aF0.0
aF0.0
aF0.0
aF0.0
aF0.0
aF0.0
aF0.6876
aF0.5425
aF0.0
aF1.0
aF0.0
aF0.0
aF0.0
asS'ts_s_hcp_measure_description'
p141
(lp142
F0.5
aF1.0
aF0.0
ag23
(g27
S'\x00\x00\x00\x00\x00\x00\x00\x00'
p143
tp144
Rp145
aF0.0
aF0.0336
aF0.0
aF0.0
aF0.0
aF0.0
aF0.0
aF0.0
aF0.0
aF0.3927
aF0.3099
aF0.0
aF1.0
aF0.0
aF0.0
aF0.0
asS'tr_hie_measure_description'
p146
(lp147
F0.5
aF1.0
aF0.0
ag23
(g27
S'\x00\x00\x00\x00\x00\x00\x00\x00'
p148
tp149
Rp150
aF0.0
aF0.0416
aF0.0
aF0.0
aF0.0
aF0.0
aF0.0
aF0.0
aF0.0
aF0.5292
aF0.4175
aF0.0
aF1.0
aF0.0
aF0.0
aF0.0
asS'ts_s_tob_1_measure_description'
p151
(lp152
F0.5
aF1.0
aF0.0
ag23
(g27
S'\x00\x00\x00\x00\x00\x00\x00\x00'
p153
tp154
Rp155
aF0.0
aF0.0168
aF0.0
aF0.0
aF0.0
aF0.0
aF0.0
aF0.0
aF0.0
aF0.5237
aF0.4132
aF0.0
aF1.0
aF0.0
aF0.0
aF0.0
asS'tr_imm_2_measure_description'
p156
(lp157
F0.5
aF1.0
aF0.0
ag23
(g27
S'\x00\x00\x00\x00\x00\x00\x00\x00'
p158
tp159
Rp160
aF0.0
aF0.0176
aF0.0
aF0.0
aF0.0
aF0.0
aF0.0
aF0.0
aF0.0
aF0.2503
aF0.1975
aF0.0
aF1.0
aF0.0
aF0.0
aF0.0
asS'tr_hcp_measure_description'
p161
(lp162
F0.5
aF1.0
aF0.0
ag23
(g27
S'\x00\x00\x00\x00\x00\x00\x00\x00'
p163
tp164
Rp165
aF0.0
aF0.0336
aF0.0
aF0.0
aF0.0
aF0.0
aF0.0
aF0.0
aF0.0
aF0.3927
aF0.3099
aF0.0
aF1.0
aF0.0
aF0.0
aF0.0
asS'tr_tob_1_measure_description'
p166
(lp167
F0.5
aF1.0
aF0.0
ag23
(g27
S'\x00\x00\x00\x00\x00\x00\x00\x00'
p168
tp169
Rp170
aF0.0
aF0.0168
aF0.0
aF0.0
aF0.0
aF0.0
aF0.0
aF0.0
aF0.0
aF0.5237
aF0.4132
aF0.0
aF1.0
aF0.0
aF0.0
aF0.0
assI6
g0
(tRp171
S'tr_city'
p172
(lp173
F0.5
aF1.0
aF0.0
ag23
(g27
S'\x00\x00\x00\x00\x00\x00\x00\x00'
p174
tp175
Rp176
aF0.0
aF0.007
aF0.0241
aF0.452
aF0.0
aF0.0
aF0.0
aF0.0
aF0.0
aF0.1535
aF0.122
aF0.0
aF1.0
aF0.0
aF0.0
aF0.0031
asS'tr_country_name'
p177
(lp178
F0.5
aF1.0
aF0.0
ag23
(g27
S'\x00\x00\x00\x00\x00\x00\x00\x00'
p179
tp180
Rp181
aF0.0
aF0.0062
aF0.0263
aF0.5384
aF0.0
aF0.0
aF0.0
aF0.0
aF0.0
aF0.121
aF0.0977
aF0.0
aF1.0
aF0.0
aF0.0
aF0.0155
asS'tr_hie_response'
p182
(lp183
F0.5
aF1.0
aF0.0
ag23
(g27
S'\x00\x00\x00\x00\x00\x00\x00\x00'
p184
tp185
Rp186
aF0.0
aF0.002
aF0.0053
aF0.7487
aF0.0
aF0.0
aF0.0
aF0.0
aF0.0
aF0.0242
aF0.0191
aF0.0
aF1.0
aF0.0
aF0.0
aF0.0
asS'tr_peoc_assessed_response'
p187
(lp188
F0.5
aF1.0
aF0.0
ag23
(g27
S'\x00\x00\x00\x00\x00\x00\x00\x00'
p189
tp190
Rp191
aF0.0
aF0.0023
aF0.0047
aF0.6136
aF0.0
aF0.0
aF0.0
aF0.0
aF0.0
aF0.0209
aF0.0165
aF0.0
aF1.0
aF0.0
aF0.0
aF0.0
assI7
g0
(tRp192
S'tr_hospital_name'
p193
(lp194
F0.5
aF1.0
aF0.0
ag23
(g27
S'\x00\x00\x00\x00\x00\x00\x00\x00'
p195
tp196
Rp197
aF0.0
aF0.0227
aF0.2526
aF0.4526
aF0.0
aF0.0
aF0.0
aF0.0
aF0.0
aF0.5501
aF0.4588
aF0.0001
aF0.9999
aF0.0015
aF0.0048
aF0.0619
asS'tr_ehr_use_response'
p198
(lp199
F0.5
aF1.0
aF0.0
ag23
(g27
S'\x00\x00\x00\x00\x00\x00\x00\x00'
p200
tp201
Rp202
aF0.0
aF0.0168
aF0.0276
aF0.2019
aF0.0
aF0.0
aF0.0
aF0.0
aF0.0
aF0.6744
aF0.5369
aF0.0
aF1.0
aF0.0
aF0.0
aF0.0341
asS'tr_address'
p203
(lp204
F0.5
aF1.0
aF0.0
ag23
(g27
S'\x00\x00\x00\x00\x00\x00\x00\x00'
p205
tp206
Rp207
aF0.0
aF0.0164
aF0.1083
aF0.4103
aF0.0
aF0.0
aF0.0
aF0.0
aF0.0
aF1.0
aF0.8086
aF0.2382
aF0.8094
aF0.0005
aF0.0048
aF0.0186
assI8
g0
(tRp208
S'ts_s_hbips_2_overall_rate_per_1000'
p209
(lp210
F0.0
aF1.0
aF0.0
ag23
(g27
S'\x00\x00\x00\x00\x00\x00\x00\x00'
p211
tp212
Rp213
aF0.0
aF0.0008
aF0.0
aF0.0
aF0.0
aF0.0
aF0.0962
aF0.0
aF0.0
aF0.0
aF0.0
aF0.0
aF0.0
aF0.0
aF0.0
aF0.0
asS'ts_s_hie_no_percent'
p214
(lp215
F0.0
aF1.0
aF0.0
ag23
(g27
S'\x00\x00\x00\x00\x00\x00\x00\x00'
p216
tp217
Rp218
aF0.0
aF0.0016
aF0.0002
aF0.1452
aF0.0001
aF0.0
aF0.0135
aF0.0011
aF0.0
aF0.0
aF0.0
aF0.0
aF0.0
aF0.0
aF0.0
aF0.0
asS'ts_s_hie_yes_percent'
p219
(lp220
F0.0
aF1.0
aF0.0
ag23
(g27
S'\x00\x00\x00\x00\x00\x00\x00\x00'
p221
tp222
Rp223
aF0.0
aF0.0016
aF0.0002
aF0.1509
aF0.0001
aF0.0
aF0.0244
aF0.0
aF0.0
aF0.0
aF0.0
aF0.0
aF0.0
aF0.0
aF0.0
aF0.0
asS'ts_s_hbips_3_overall_rate_per_1000'
p224
(lp225
F0.0
aF1.0
aF0.0
ag23
(g27
S'\x00\x00\x00\x00\x00\x00\x00\x00'
p226
tp227
Rp228
aF0.0
aF0.0008
aF0.0
aF0.0
aF0.0
aF0.0
aF0.1536
aF0.0
aF0.0
aF0.0
aF0.0
aF0.0
aF0.0
aF0.0
aF0.0
aF0.0
assI10
g0
(tRp229
S'ts_s_tob_2a_percentage'
p230
(lp231
F0.0
aF0.01
aF0.0
ag23
(g27
S'\x00\x00\x00\x00\x00\x00\x00\x00'
p232
tp233
Rp234
aF0.0
aF0.16
aF0.0
aF0.0
aF0.0001
aF0.0
aF0.0215
aF0.0004
aF0.0
aF0.0
aF0.0
aF0.0
aF0.0
aF0.0
aF0.0
aF0.0
asS'ts_s_hbips_5_overall_percentage_of_total'
p235
(lp236
F0.0
aF0.01
aF0.0
ag23
(g27
S'\x00\x00\x00\x00\x00\x00\x00\x00'
p237
tp238
Rp239
aF0.0
aF0.16
aF0.0
aF0.0
aF0.0001
aF0.0
aF0.0164
aF0.0008
aF0.0
aF0.0
aF0.0
aF0.0
aF0.0
aF0.0
aF0.0
aF0.0
asS'tr_hbips_6_overall_percentage_of_total'
p240
(lp241
F0.0
aF0.01
aF0.0
ag23
(g27
S'\x00\x00\x00\x00\x00\x00\x00\x00'
p242
tp243
Rp244
aF0.0
aF0.08
aF0.0
aF0.0
aF0.0
aF0.0
aF0.0175
aF0.0
aF0.0
aF0.0
aF0.0
aF0.0
aF0.0
aF0.0
aF0.0
aF0.0
asS'tr_sub_1_footnote'
p245
(lp246
F0.25
aF0.008
aF0.0
ag23
(g27
S'\x00\x00\x00\x00\x00\x00\x00\x00'
p247
tp248
Rp249
aF0.0
aF0.3863
aF0.1778
aF0.2495
aF0.0
aF0.0
aF0.3418
aF0.0
aF0.0
aF0.0
aF0.0
aF0.0
aF0.0
aF0.0
aF0.0
aF0.0
asS'ts_s_fuh_7_percentage'
p250
(lp251
F0.0
aF0.01
aF0.0
ag23
(g27
S'\x00\x00\x00\x00\x00\x00\x00\x00'
p252
tp253
Rp254
aF0.0
aF0.16
aF0.0
aF0.0
aF0.0001
aF0.0
aF0.0155
aF0.0006
aF0.0
aF0.0
aF0.0
aF0.0
aF0.0
aF0.0
aF0.0
aF0.0
asS'tr_hcp_footnote'
p255
(lp256
F0.25
aF0.008
aF0.0
ag23
(g27
S'\x00\x00\x00\x00\x00\x00\x00\x00'
p257
tp258
Rp259
aF0.0
aF0.3825
aF0.2245
aF0.2832
aF0.0
aF0.0
aF0.295
aF0.0
aF0.0
aF0.0
aF0.0
aF0.0
aF0.0
aF0.0
aF0.0
aF0.0
asS'ts_s_hbips_6_overall_percentage_of_total'
p260
(lp261
F0.0
aF0.01
aF0.0
ag23
(g27
S'\x00\x00\x00\x00\x00\x00\x00\x00'
p262
tp263
Rp264
aF0.0
aF0.16
aF0.0
aF0.0
aF0.0002
aF0.0
aF0.0071
aF0.0014
aF0.0
aF0.0
aF0.0
aF0.0
aF0.0
aF0.0
aF0.0
aF0.0
asS'tr_hbips_2_overall_footnote'
p265
(lp266
F0.25
aF0.008
aF0.0
ag23
(g27
S'\x00\x00\x00\x00\x00\x00\x00\x00'
p267
tp268
Rp269
aF0.0
aF0.3944
aF0.0755
aF0.1594
aF0.0
aF0.0
aF0.4502
aF0.0
aF0.0
aF0.0
aF0.0
aF0.0
aF0.0
aF0.0
aF0.0
aF0.0
asS'tr_fuh_30_percentage'
p270
(lp271
F0.0
aF0.01
aF0.0
ag23
(g27
S'\x00\x00\x00\x00\x00\x00\x00\x00'
p272
tp273
Rp274
aF0.0
aF0.08
aF0.0
aF0.0
aF0.0
aF0.0
aF0.0558
aF0.0
aF0.0
aF0.0
aF0.0
aF0.0
aF0.0
aF0.0
aF0.0
aF0.0
asS'ts_s_ehr_paper_percentage'
p275
(lp276
F0.0
aF0.01
aF0.0
ag23
(g27
S'\x00\x00\x00\x00\x00\x00\x00\x00'
p277
tp278
Rp279
aF0.0
aF0.1615
aF0.0069
aF0.1047
aF0.0001
aF0.0
aF0.0156
aF0.0007
aF0.0
aF0.0
aF0.0
aF0.0
aF0.0
aF0.0
aF0.0
aF0.0
asS'ts_s_hbips_7_overall_percentage_of_total'
p280
(lp281
F0.0
aF0.01
aF0.0
ag23
(g27
S'\x00\x00\x00\x00\x00\x00\x00\x00'
p282
tp283
Rp284
aF0.0
aF0.16
aF0.0
aF0.0
aF0.0002
aF0.0
aF0.0085
aF0.0013
aF0.0
aF0.0
aF0.0
aF0.0
aF0.0
aF0.0
aF0.0
aF0.0
asS'ts_s_tob_1_percentage'
p285
(lp286
F0.0
aF0.01
aF0.0
ag23
(g27
S'\x00\x00\x00\x00\x00\x00\x00\x00'
p287
tp288
Rp289
aF0.0
aF0.16
aF0.0
aF0.0
aF0.0002
aF0.0
aF0.0052
aF0.0023
aF0.0
aF0.0
aF0.0
aF0.0
aF0.0
aF0.0
aF0.0
aF0.0
asS'ts_s_ehr_non_certified_count'
p290
(lp291
F0.25
aF0.008
aF0.0
ag23
(g27
S'\x00\x00\x00\x00\x00\x00\x00\x00'
p292
tp293
Rp294
aF0.0
aF0.1
aF0.0
aF0.0
aF0.0
aF0.0
aF0.077
aF0.0
aF0.0
aF0.0
aF0.0
aF0.0
aF0.0
aF0.0
aF0.0
aF0.0
asS'tr_ehr_use_footnote'
p295
(lp296
F0.25
aF0.008
aF0.0
ag23
(g27
S'\x00\x00\x00\x00\x00\x00\x00\x00'
p297
tp298
Rp299
aF0.0
aF0.3967
aF0.0443
aF0.1212
aF0.0
aF0.0
aF0.585
aF0.0
aF0.0
aF0.0
aF0.0
aF0.0
aF0.0
aF0.0
aF0.0
aF0.0
asS'tr_tob_2_percentage'
p300
(lp301
F0.0
aF0.01
aF0.0
ag23
(g27
S'\x00\x00\x00\x00\x00\x00\x00\x00'
p302
tp303
Rp304
aF0.0
aF0.08
aF0.0
aF0.0
aF0.0
aF0.0
aF0.0473
aF0.0
aF0.0
aF0.0
aF0.0
aF0.0
aF0.0
aF0.0
aF0.0
aF0.0
asS'ts_s_sub_1_percentage'
p305
(lp306
F0.0
aF0.01
aF0.0
ag23
(g27
S'\x00\x00\x00\x00\x00\x00\x00\x00'
p307
tp308
Rp309
aF0.0
aF0.16
aF0.0
aF0.0
aF0.0002
aF0.0
aF0.0066
aF0.002
aF0.0
aF0.0
aF0.0
aF0.0
aF0.0
aF0.0
aF0.0
aF0.0
asS'tr_imm_2_percentage'
p310
(lp311
F0.0
aF0.01
aF0.0
ag23
(g27
S'\x00\x00\x00\x00\x00\x00\x00\x00'
p312
tp313
Rp314
aF0.0
aF0.08
aF0.0
aF0.0
aF0.0
aF0.0
aF0.0292
aF0.0
aF0.0
aF0.0
aF0.0
aF0.0
aF0.0
aF0.0
aF0.0
aF0.0
asS'ts_s_tob_2_percentage'
p315
(lp316
F0.0
aF0.01
aF0.0
ag23
(g27
S'\x00\x00\x00\x00\x00\x00\x00\x00'
p317
tp318
Rp319
aF0.0
aF0.16
aF0.0
aF0.0
aF0.0001
aF0.0
aF0.0147
aF0.0007
aF0.0
aF0.0
aF0.0
aF0.0
aF0.0
aF0.0
aF0.0
aF0.0
asS'tr_hie_footnote'
p320
(lp321
F0.25
aF0.008
aF0.0
ag23
(g27
S'\x00\x00\x00\x00\x00\x00\x00\x00'
p322
tp323
Rp324
aF0.0
aF0.3967
aF0.0443
aF0.1212
aF0.0
aF0.0
aF0.585
aF0.0
aF0.0
aF0.0
aF0.0
aF0.0
aF0.0
aF0.0
aF0.0
aF0.0
asS'tr_hbips_3_overall_footnote'
p325
(lp326
F0.25
aF0.008
aF0.0
ag23
(g27
S'\x00\x00\x00\x00\x00\x00\x00\x00'
p327
tp328
Rp329
aF0.0
aF0.3936
aF0.0851
aF0.1694
aF0.0
aF0.0
aF0.4228
aF0.0
aF0.0
aF0.0
aF0.0
aF0.0
aF0.0
aF0.0
aF0.0
aF0.0
asS'tr_zip_code'
p330
(lp331
F0.25
aF0.008
aF0.0
ag23
(g27
S'\x00\x00\x00\x00\x00\x00\x00\x00'
p332
tp333
Rp334
aF0.0
aF0.49
aF0.0446
aF0.0986
aF0.0913
aF0.0001
aF0.0358
aF0.0227
aF0.0281
aF0.0
aF0.0
aF0.0
aF0.0
aF0.0
aF0.0
aF0.0
asS'tr_hbips_6_overall_footnote'
p335
(lp336
F0.25
aF0.008
aF0.0
ag23
(g27
S'\x00\x00\x00\x00\x00\x00\x00\x00'
p337
tp338
Rp339
aF0.0
aF0.394
aF0.0804
aF0.1645
aF0.0
aF0.0
aF0.5122
aF0.0
aF0.0
aF0.0
aF0.0
aF0.0
aF0.0
aF0.0
aF0.0
aF0.0
asS'tr_hbips_5_overall_percentage_of_total'
p340
(lp341
F0.0
aF0.01
aF0.0
ag23
(g27
S'\x00\x00\x00\x00\x00\x00\x00\x00'
p342
tp343
Rp344
aF0.0
aF0.08
aF0.0
aF0.0
aF0.0
aF0.0
aF0.0854
aF0.0
aF0.0
aF0.0
aF0.0
aF0.0
aF0.0
aF0.0
aF0.0
aF0.0
asS'tr_sub_1_percentage'
p345
(lp346
F0.0
aF0.01
aF0.0
ag23
(g27
S'\x00\x00\x00\x00\x00\x00\x00\x00'
p347
tp348
Rp349
aF0.0
aF0.08
aF0.0
aF0.0
aF0.0
aF0.0
aF0.0208
aF0.0
aF0.0
aF0.0
aF0.0
aF0.0
aF0.0
aF0.0
aF0.0
aF0.0
asS'tr_tob_1_footnote'
p350
(lp351
F0.25
aF0.008
aF0.0
ag23
(g27
S'\x00\x00\x00\x00\x00\x00\x00\x00'
p352
tp353
Rp354
aF0.0
aF0.3894
aF0.139
aF0.2189
aF0.0
aF0.0
aF0.3639
aF0.0
aF0.0
aF0.0
aF0.0
aF0.0
aF0.0
aF0.0
aF0.0
aF0.0
asS'tr_tob_2a_percentage'
p355
(lp356
F0.0
aF0.01
aF0.0
ag23
(g27
S'\x00\x00\x00\x00\x00\x00\x00\x00'
p357
tp358
Rp359
aF0.0
aF0.08
aF0.0
aF0.0
aF0.0
aF0.0
aF0.1078
aF0.0
aF0.0
aF0.0
aF0.0
aF0.0
aF0.0
aF0.0
aF0.0
aF0.0
asS'tr_fuh_7_percentage'
p360
(lp361
F0.0
aF0.01
aF0.0
ag23
(g27
S'\x00\x00\x00\x00\x00\x00\x00\x00'
p362
tp363
Rp364
aF0.0
aF0.08
aF0.0
aF0.0
aF0.0
aF0.0
aF0.2432
aF0.0
aF0.0
aF0.0
aF0.0
aF0.0
aF0.0
aF0.0
aF0.0
aF0.0
asS'ts_s_fuh_30_percentage'
p365
(lp366
F0.0
aF0.01
aF0.0
ag23
(g27
S'\x00\x00\x00\x00\x00\x00\x00\x00'
p367
tp368
Rp369
aF0.0
aF0.16
aF0.0
aF0.0
aF0.0001
aF0.0
aF0.0109
aF0.0009
aF0.0
aF0.0
aF0.0
aF0.0
aF0.0
aF0.0
aF0.0
aF0.0
asS'tr_tob_1_percentage'
p370
(lp371
F0.0
aF0.01
aF0.0
ag23
(g27
S'\x00\x00\x00\x00\x00\x00\x00\x00'
p372
tp373
Rp374
aF0.0
aF0.08
aF0.0
aF0.0
aF0.0
aF0.0
aF0.0157
aF0.0
aF0.0
aF0.0
aF0.0
aF0.0
aF0.0
aF0.0
aF0.0
aF0.0
asS'tr_hbips_7_overall_footnote'
p375
(lp376
F0.25
aF0.008
aF0.0
ag23
(g27
S'\x00\x00\x00\x00\x00\x00\x00\x00'
p377
tp378
Rp379
aF0.0
aF0.3925
aF0.0993
aF0.1836
aF0.0
aF0.0
aF0.4823
aF0.0
aF0.0
aF0.0
aF0.0
aF0.0
aF0.0
aF0.0
aF0.0
aF0.0
asS'tr_imm_2_footnote'
p380
(lp381
F0.25
aF0.008
aF0.0
ag23
(g27
S'\x00\x00\x00\x00\x00\x00\x00\x00'
p382
tp383
Rp384
aF0.0
aF0.3825
aF0.2245
aF0.2832
aF0.0
aF0.0
aF0.3276
aF0.0
aF0.0
aF0.0
aF0.0
aF0.0
aF0.0
aF0.0
aF0.0
aF0.0
asS'ts_s_hcp_percentage'
p385
(lp386
F0.0
aF0.01
aF0.0
ag23
(g27
S'\x00\x00\x00\x00\x00\x00\x00\x00'
p387
tp388
Rp389
aF0.0
aF0.16
aF0.0
aF0.0
aF0.0002
aF0.0
aF0.0051
aF0.0023
aF0.0
aF0.0
aF0.0
aF0.0
aF0.0
aF0.0
aF0.0
aF0.0
asS'ts_s_imm_2_percentage'
p390
(lp391
F0.0
aF0.01
aF0.0
ag23
(g27
S'\x00\x00\x00\x00\x00\x00\x00\x00'
p392
tp393
Rp394
aF0.0
aF0.16
aF0.0
aF0.0
aF0.0001
aF0.0
aF0.0105
aF0.0012
aF0.0
aF0.0
aF0.0
aF0.0
aF0.0
aF0.0
aF0.0
aF0.0
asS'tr_peoc_assessed_footnote'
p395
(lp396
F0.25
aF0.008
aF0.0
ag23
(g27
S'\x00\x00\x00\x00\x00\x00\x00\x00'
p397
tp398
Rp399
aF0.0
aF0.3967
aF0.0443
aF0.1212
aF0.0
aF0.0
aF0.585
aF0.0
aF0.0
aF0.0
aF0.0
aF0.0
aF0.0
aF0.0
aF0.0
aF0.0
asS'tr_hbips_7_overall_percentage_of_total'
p400
(lp401
F0.0
aF0.01
aF0.0
ag23
(g27
S'\x00\x00\x00\x00\x00\x00\x00\x00'
p402
tp403
Rp404
aF0.0
aF0.08
aF0.0
aF0.0
aF0.0
aF0.0
aF0.0218
aF0.0
aF0.0
aF0.0
aF0.0
aF0.0
aF0.0
aF0.0
aF0.0
aF0.0
assI11
g0
(tRp405
S'tr_state'
p406
(lp407
F0.5
aF0.004
aF0.0
ag23
(g27
S'\x00\x00\x00\x00\x00\x00\x00\x00'
p408
tp409
Rp410
aF0.0
aF0.4
aF0.0
aF0.0
aF0.0
aF0.0
aF0.0
aF0.0
aF0.0
aF0.0
aF0.0
aF0.0
aF1.0
aF0.0
aF0.0
aF0.0
assI12
g0
(tRp411
S'ts_st_name'
p412
(lp413
F0.5
aF1.0
aF0.0
ag23
(g27
S'\x00\x00\x00\x00\x00\x00\x00\x00'
p414
tp415
Rp416
aF1.0
aF0.011
aF0.0488
aF0.4123
aF0.0
aF0.0
aF0.0
aF0.0
aF0.0
aF0.7871
aF0.6211
aF0.0087
aF0.993
aF0.0
aF0.0
aF0.0
assI13
g0
(tRp417
S'tr_hbips_3_overall_rate_per_1000'
p418
(lp419
F0.5
aF1.0
aF0.0
ag23
(g27
S'\x00\x00\x00\x00\x00\x00\x00\x00'
p420
tp421
Rp422
aF0.0
aF0.0021
aF0.0078
aF0.8545
aF0.0
aF0.0
aF0.0
aF0.0
aF0.0
aF0.0
aF0.9197
aF0.9851
aF0.2119
aF0.0
aF0.0
aF0.0
asS'tr_hbips_2_overall_rate_per_1000'
p423
(lp424
F0.5
aF1.0
aF0.0
ag23
(g27
S'\x00\x00\x00\x00\x00\x00\x00\x00'
p425
tp426
Rp427
aF0.0
aF0.0025
aF0.0065
aF0.6624
aF0.0
aF0.0
aF0.0
aF0.0
aF0.0
aF0.0
aF1.0
aF0.962
aF0.2304
aF0.0
aF0.0
aF0.0
assI15
g0
(tRp428
S'ts_s_hie_yes_count'
p429
(lp430
F0.25
aF0.008
aF0.0
ag23
(g27
S'\x00\x00\x00\x00\x00\x00\x00\x00'
p431
tp432
Rp433
aF0.0
aF0.1442
aF0.112
aF0.5304
aF0.0
aF0.0
aF0.0568
aF0.0
aF0.0
aF0.0
aF0.0
aF0.0
aF0.0
aF0.0
aF0.0
aF0.0
asS'ts_s_ehr_certified_percentage'
p434
(lp435
F0.0
aF0.01
aF0.0
ag23
(g27
S'\x00\x00\x00\x00\x00\x00\x00\x00'
p436
tp437
Rp438
aF0.0
aF0.1569
aF0.0134
aF0.1509
aF0.0001
aF0.0
aF0.0254
aF0.0
aF0.0
aF0.0
aF0.0
aF0.0
aF0.0
aF0.0
aF0.0
aF0.0
asS'ts_s_peoc_yes_count'
p439
(lp440
F0.25
aF0.008
aF0.0
ag23
(g27
S'\x00\x00\x00\x00\x00\x00\x00\x00'
p441
tp442
Rp443
aF0.0
aF0.1692
aF0.0967
aF0.42
aF0.0
aF0.0
aF0.0571
aF0.0001
aF0.0
aF0.0
aF0.0
aF0.0
aF0.0
aF0.0
aF0.0
aF0.0
asS'tr_tob_2a_footnote'
p444
(lp445
F0.25
aF0.008
aF0.0
ag23
(g27
S'\x00\x00\x00\x00\x00\x00\x00\x00'
p446
tp447
Rp448
aF0.0
aF0.3182
aF0.8095
aF0.6464
aF0.0
aF0.0
aF0.1634
aF0.0
aF0.0
aF0.0
aF0.0
aF0.0
aF0.0
aF0.0
aF0.0
aF0.0
asS'ts_s_hie_no_count'
p449
(lp450
F0.25
aF0.008
aF0.0
ag23
(g27
S'\x00\x00\x00\x00\x00\x00\x00\x00'
p451
tp452
Rp453
aF0.0
aF0.1615
aF0.1074
aF0.4639
aF0.0
aF0.0
aF0.0565
aF0.0001
aF0.0
aF0.0
aF0.0
aF0.0
aF0.0
aF0.0
aF0.0
aF0.0
asS'tr_fuh_30_footnote'
p454
(lp455
F0.25
aF0.008
aF0.0
ag23
(g27
S'\x00\x00\x00\x00\x00\x00\x00\x00'
p456
tp457
Rp458
aF0.0
aF0.346
aF0.6028
aF0.5132
aF0.0
aF0.0
aF0.1789
aF0.0
aF0.0
aF0.0
aF0.0
aF0.0
aF0.0
aF0.0
aF0.0
aF0.0
asS'ts_s_peoc_yes_percentage'
p459
(lp460
F0.0
aF0.01
aF0.0
ag23
(g27
S'\x00\x00\x00\x00\x00\x00\x00\x00'
p461
tp462
Rp463
aF0.0
aF0.1692
aF0.037
aF0.2326
aF0.0001
aF0.0
aF0.012
aF0.0018
aF0.0
aF0.0
aF0.0
aF0.0
aF0.0
aF0.0
aF0.0
aF0.0
asS'ts_s_peoc_no_count'
p464
(lp465
F0.25
aF0.008
aF0.0
ag23
(g27
S'\x00\x00\x00\x00\x00\x00\x00\x00'
p466
tp467
Rp468
aF0.0
aF0.1327
aF0.0998
aF0.5444
aF0.0
aF0.0
aF0.0585
aF0.0
aF0.0
aF0.0
aF0.0
aF0.0
aF0.0
aF0.0
aF0.0
aF0.0
asS'tr_hcp_percentage'
p469
(lp470
F0.0
aF0.01
aF0.0
ag23
(g27
S'\x00\x00\x00\x00\x00\x00\x00\x00'
p471
tp472
Rp473
aF0.0
aF0.164
aF0.0613
aF0.3089
aF0.0001
aF0.0
aF0.0221
aF0.0
aF0.0
aF0.0
aF0.0
aF0.0
aF0.0
aF0.0
aF0.0
aF0.0
asS'ts_s_ehr_certified_count'
p474
(lp475
F0.25
aF0.008
aF0.0
ag23
(g27
S'\x00\x00\x00\x00\x00\x00\x00\x00'
p476
tp477
Rp478
aF0.0
aF0.15
aF0.1134
aF0.5133
aF0.0
aF0.0
aF0.0531
aF0.0
aF0.0
aF0.0
aF0.0
aF0.0
aF0.0
aF0.0
aF0.0
aF0.0
asS'ts_s_ehr_paper_count'
p479
(lp480
F0.25
aF0.008
aF0.0
ag23
(g27
S'\x00\x00\x00\x00\x00\x00\x00\x00'
p481
tp482
Rp483
aF0.0
aF0.1558
aF0.112
aF0.491
aF0.0
aF0.0
aF0.0597
aF0.0
aF0.0
aF0.0
aF0.0
aF0.0
aF0.0
aF0.0
aF0.0
aF0.0
asS'tr_hbips_5_overall_footnote'
p484
(lp485
F0.25
aF0.008
aF0.0
ag23
(g27
S'\x00\x00\x00\x00\x00\x00\x00\x00'
p486
tp487
Rp488
aF0.0
aF0.2286
aF1.0
aF1.0
aF0.0
aF0.0
aF0.1019
aF0.0
aF0.0
aF0.0
aF0.0
aF0.0
aF0.0
aF0.0
aF0.0
aF0.0
asS'ts_s_ehr_non_certified_percentage'
p489
(lp490
F0.0
aF0.01
aF0.0
ag23
(g27
S'\x00\x00\x00\x00\x00\x00\x00\x00'
p491
tp492
Rp493
aF0.0
aF0.0877
aF0.0316
aF0.4141
aF0.0
aF0.0
aF0.0995
aF0.0
aF0.0
aF0.0
aF0.0
aF0.0
aF0.0
aF0.0
aF0.0
aF0.0
asS'ts_s_peoc_no_percentage'
p494
(lp495
F0.0
aF0.01
aF0.0
ag23
(g27
S'\x00\x00\x00\x00\x00\x00\x00\x00'
p496
tp497
Rp498
aF0.0
aF0.1462
aF0.0519
aF0.319
aF0.0
aF0.0
aF0.0378
aF0.0
aF0.0
aF0.0
aF0.0
aF0.0
aF0.0
aF0.0
aF0.0
aF0.0
asS'tr_fuh_7_footnote'
p499
(lp500
F0.25
aF0.008
aF0.0
ag23
(g27
S'\x00\x00\x00\x00\x00\x00\x00\x00'
p501
tp502
Rp503
aF0.0
aF0.3088
aF0.8641
aF0.6884
aF0.0
aF0.0
aF0.1365
aF0.0
aF0.0
aF0.0
aF0.0
aF0.0
aF0.0
aF0.0
aF0.0
aF0.0
asS'tr_tob_2_footnote'
p504
(lp505
F0.25
aF0.008
aF0.0
ag23
(g27
S'\x00\x00\x00\x00\x00\x00\x00\x00'
p506
tp507
Rp508
aF0.0
aF0.3536
aF0.5333
aF0.4722
aF0.0
aF0.0
aF0.2113
aF0.0
aF0.0
aF0.0
aF0.0
aF0.0
aF0.0
aF0.0
aF0.0
aF0.0
assI16
g0
(tRp509
S'ts_st_no'
p510
(lp511
F0.0
aF1.0
aF0.0
ag23
(g27
S'\x00\x00\x00\x00\x00\x00\x00\x00'
p512
tp513
Rp514
aF1.0
aF0.0028
aF0.0022
aF0.3431
aF0.0038
aF0.0
aF0.0817
aF0.0003
aF0.0042
aF0.0
aF0.0
aF0.0
aF0.0
aF0.0
aF0.0
aF0.0
assI17
g0
(tRp515
S'ts_state'
p516
(lp517
F0.5
aF0.004
aF1.0
ag23
(g27
S'\x00\x00\x00\x00\x00\x00\x00\x00'
p518
tp519
Rp520
aF1.0
aF0.4
aF0.0
aF0.0
aF0.0
aF0.0
aF0.0
aF0.0
aF0.0
aF0.0
aF0.0
aF0.0
aF1.0
aF0.0
aF0.0
aF0.0
asS'tr_provider_number'
p521
(lp522
F0.0
aF1.0
aF1.0
ag23
(g27
S'\x00\x00\x00\x00\x00\x00\x00\x00'
p523
tp524
Rp525
aF1.0
aF0.0047
aF0.0005
aF0.0952
aF0.5017
aF0.0017
aF0.0344
aF0.3652
aF0.1886
aF0.0
aF0.0
aF0.0
aF0.0
aF0.0
aF0.0
aF0.0
assI20
g0
(tRp526
S'tr_hbips_3_overall_num'
p527
(lp528
F0.0
aF0.02
aF0.0
ag23
(g27
S'\x00\x00\x00\x00\x00\x00\x00\x00'
p529
tp530
Rp531
aF1.0
aF0.0644
aF0.1185
aF0.7736
aF0.0004
aF0.0
aF1.0
aF0.0
aF0.0343
aF0.0
aF0.0
aF0.0
aF0.0
aF0.0
aF0.0
aF0.0
asS'tr_hbips_2_overall_num'
p532
(lp533
F0.0
aF0.02
aF0.0
ag23
(g27
S'\x00\x00\x00\x00\x00\x00\x00\x00'
p534
tp535
Rp536
aF1.0
aF0.072
aF0.131
aF0.7268
aF0.0005
aF0.0
aF0.7263
aF0.0
aF0.0343
aF0.0
aF0.0
aF0.0
aF0.0
aF0.0
aF0.0
aF0.0
assI21
g0
(tRp537
S'ts_s_hbips_7_overall_den'
p538
(lp539
F0.0
aF0.02
aF0.0
ag23
(g27
S'\x00\x00\x00\x00\x00\x00\x00\x00'
p540
tp541
Rp542
aF1.0
aF0.1808
aF0.0523
aF0.183
aF0.0334
aF0.0008
aF0.0616
aF0.0305
aF0.0196
aF0.0
aF0.0
aF0.0
aF0.0
aF0.0
aF0.0
aF0.0
asS'tr_hbips_6_overall_num'
p543
(lp544
F0.0
aF0.02
aF0.0
ag23
(g27
S'\x00\x00\x00\x00\x00\x00\x00\x00'
p545
tp546
Rp547
aF1.0
aF0.1186
aF0.0481
aF0.2675
aF0.0009
aF0.0
aF0.0653
aF0.0
aF0.0024
aF0.0
aF0.0
aF0.0
aF0.0
aF0.0
aF0.0
aF0.0
asS'ts_s_sub_1_numerator'
p548
(lp549
F0.0
aF0.02
aF0.0
ag23
(g27
S'\x00\x00\x00\x00\x00\x00\x00\x00'
p550
tp551
Rp552
aF1.0
aF0.1731
aF0.0679
aF0.2176
aF0.0221
aF0.0003
aF0.06
aF0.0125
aF0.012
aF0.0
aF0.0
aF0.0
aF0.0
aF0.0
aF0.0
aF0.0
asS'ts_s_tob_1_numerator'
p553
(lp554
F0.0
aF0.02
aF0.0
ag23
(g27
S'\x00\x00\x00\x00\x00\x00\x00\x00'
p555
tp556
Rp557
aF1.0
aF0.1754
aF0.057
aF0.1967
aF0.024
aF0.0004
aF0.0654
aF0.0122
aF0.0186
aF0.0
aF0.0
aF0.0
aF0.0
aF0.0
aF0.0
aF0.0
asS'tr_hbips_7_overall_num'
p558
(lp559
F0.0
aF0.02
aF0.0
ag23
(g27
S'\x00\x00\x00\x00\x00\x00\x00\x00'
p560
tp561
Rp562
aF1.0
aF0.1171
aF0.0526
aF0.2835
aF0.0008
aF0.0
aF0.0654
aF0.0
aF0.002
aF0.0
aF0.0
aF0.0
aF0.0
aF0.0
aF0.0
aF0.0
asS'tr_hbips_3_overall_den'
p563
(lp564
F0.0
aF0.02
aF0.0
ag23
(g27
S'\x00\x00\x00\x00\x00\x00\x00\x00'
p565
tp566
Rp567
aF1.0
aF0.173
aF0.1027
aF0.268
aF0.0309
aF0.0001
aF0.1164
aF0.0
aF0.1575
aF0.0
aF0.0
aF0.0
aF0.0
aF0.0
aF0.0
aF0.0
asS'ts_s_fuh_7_numerator'
p568
(lp569
F0.0
aF0.02
aF0.0
ag23
(g27
S'\x00\x00\x00\x00\x00\x00\x00\x00'
p570
tp571
Rp572
aF1.0
aF0.13
aF0.069
aF0.292
aF0.0021
aF0.0
aF0.0674
aF0.0006
aF0.0014
aF0.0
aF0.0
aF0.0
aF0.0
aF0.0
aF0.0
aF0.0
asS'tr_hcp_numerator'
p573
(lp574
F0.0
aF0.02
aF0.0
ag23
(g27
S'\x00\x00\x00\x00\x00\x00\x00\x00'
p575
tp576
Rp577
aF1.0
aF0.0977
aF0.0826
aF0.4252
aF0.0005
aF0.0
aF0.2292
aF0.0
aF0.0083
aF0.0
aF0.0
aF0.0
aF0.0
aF0.0
aF0.0
aF0.0
asS'ts_s_imm_2_denominator'
p578
(lp579
F0.0
aF0.02
aF0.0
ag23
(g27
S'\x00\x00\x00\x00\x00\x00\x00\x00'
p580
tp581
Rp582
aF1.0
aF0.17
aF0.0619
aF0.2118
aF0.018
aF0.0003
aF0.071
aF0.0174
aF0.0179
aF0.0
aF0.0
aF0.0
aF0.0
aF0.0
aF0.0
aF0.0
asS'ts_s_hbips_2_overall_num'
p583
(lp584
F0.0
aF0.02
aF0.0
ag23
(g27
S'\x00\x00\x00\x00\x00\x00\x00\x00'
p585
tp586
Rp587
aF1.0
aF0.1554
aF0.1372
aF0.3447
aF0.0164
aF0.0008
aF0.133
aF0.0019
aF0.0356
aF0.0
aF0.0
aF0.0
aF0.0
aF0.0
aF0.0
aF0.0
asS'tr_hcp_denominator'
p588
(lp589
F0.0
aF0.02
aF0.0
ag23
(g27
S'\x00\x00\x00\x00\x00\x00\x00\x00'
p590
tp591
Rp592
aF1.0
aF0.1013
aF0.0887
aF0.4251
aF0.0007
aF0.0
aF0.2059
aF0.0
aF0.0095
aF0.0
aF0.0
aF0.0
aF0.0
aF0.0
aF0.0
aF0.0
asS'ts_s_hbips_7_overall_num'
p593
(lp594
F0.0
aF0.02
aF0.0
ag23
(g27
S'\x00\x00\x00\x00\x00\x00\x00\x00'
p595
tp596
Rp597
aF1.0
aF0.18
aF0.0523
aF0.1839
aF0.0263
aF0.0004
aF0.0596
aF0.0279
aF0.0153
aF0.0
aF0.0
aF0.0
aF0.0
aF0.0
aF0.0
aF0.0
asS'ts_s_hcp_denominator'
p598
(lp599
F0.0
aF0.02
aF0.0
ag23
(g27
S'\x00\x00\x00\x00\x00\x00\x00\x00'
p600
tp601
Rp602
aF1.0
aF0.2223
aF0.0517
aF0.148
aF0.3538
aF0.088
aF0.0628
aF0.2371
aF0.2616
aF0.0
aF0.0
aF0.0
aF0.0
aF0.0
aF0.0
aF0.0
asS'ts_s_tob_2a_numerator'
p603
(lp604
F0.0
aF0.02
aF0.0
ag23
(g27
S'\x00\x00\x00\x00\x00\x00\x00\x00'
p605
tp606
Rp607
aF1.0
aF0.1385
aF0.066
aF0.2684
aF0.0037
aF0.0
aF0.0603
aF0.0019
aF0.0021
aF0.0
aF0.0
aF0.0
aF0.0
aF0.0
aF0.0
aF0.0
asS'ts_s_tob_2_2a__denominator'
p608
(lp609
F0.0
aF0.02
aF0.0
ag23
(g27
S'\x00\x00\x00\x00\x00\x00\x00\x00'
p610
tp611
Rp612
aF1.0
aF0.1623
aF0.0657
aF0.2284
aF0.012
aF0.0001
aF0.0648
aF0.0048
aF0.0085
aF0.0
aF0.0
aF0.0
aF0.0
aF0.0
aF0.0
aF0.0
asS'tr_imm_2_denominator'
p613
(lp614
F0.0
aF0.02
aF0.0
ag23
(g27
S'\x00\x00\x00\x00\x00\x00\x00\x00'
p615
tp616
Rp617
aF1.0
aF0.1105
aF0.0622
aF0.3264
aF0.0006
aF0.0
aF0.1679
aF0.0
aF0.0085
aF0.0
aF0.0
aF0.0
aF0.0
aF0.0
aF0.0
aF0.0
asS'tr_hbips_5_overall_den'
p618
(lp619
F0.0
aF0.02
aF0.0
ag23
(g27
S'\x00\x00\x00\x00\x00\x00\x00\x00'
p620
tp621
Rp622
aF1.0
aF0.0594
aF0.0657
aF0.6244
aF0.0001
aF0.0
aF0.2004
aF0.0
aF0.0006
aF0.0
aF0.0
aF0.0
aF0.0
aF0.0
aF0.0
aF0.0
asS'ts_s_fuh_30_denominator'
p623
(lp624
F0.0
aF0.02
aF0.0
ag23
(g27
S'\x00\x00\x00\x00\x00\x00\x00\x00'
p625
tp626
Rp627
aF1.0
aF0.1531
aF0.0608
aF0.233
aF0.0069
aF0.0
aF0.0646
aF0.0022
aF0.0042
aF0.0
aF0.0
aF0.0
aF0.0
aF0.0
aF0.0
aF0.0
asS'tr_hbips_6_overall_den'
p628
(lp629
F0.0
aF0.02
aF0.0
ag23
(g27
S'\x00\x00\x00\x00\x00\x00\x00\x00'
p630
tp631
Rp632
aF1.0
aF0.121
aF0.0437
aF0.25
aF0.0011
aF0.0
aF0.1284
aF0.0
aF0.0116
aF0.0
aF0.0
aF0.0
aF0.0
aF0.0
aF0.0
aF0.0
asS'tr_tob_2_2a__denominator'
p633
(lp634
F0.0
aF0.02
aF0.0
ag23
(g27
S'\x00\x00\x00\x00\x00\x00\x00\x00'
p635
tp636
Rp637
aF1.0
aF0.0926
aF0.1432
aF0.5909
aF0.0003
aF0.0
aF0.1338
aF0.0
aF0.0036
aF0.0
aF0.0
aF0.0
aF0.0
aF0.0
aF0.0
aF0.0
asS'tr_tob_2_numerator'
p638
(lp639
F0.0
aF0.02
aF0.0
ag23
(g27
S'\x00\x00\x00\x00\x00\x00\x00\x00'
p640
tp641
Rp642
aF1.0
aF0.0902
aF0.1058
aF0.5215
aF0.0002
aF0.0
aF0.0794
aF0.0
aF0.0005
aF0.0
aF0.0
aF0.0
aF0.0
aF0.0
aF0.0
aF0.0
asS'ts_s_hbips_6_overall_num'
p643
(lp644
F0.0
aF0.02
aF0.0
ag23
(g27
S'\x00\x00\x00\x00\x00\x00\x00\x00'
p645
tp646
Rp647
aF1.0
aF0.1808
aF0.0523
aF0.183
aF0.0283
aF0.0005
aF0.0596
aF0.0292
aF0.0165
aF0.0
aF0.0
aF0.0
aF0.0
aF0.0
aF0.0
aF0.0
asS'ts_s_imm_2_numerator'
p648
(lp649
F0.0
aF0.02
aF0.0
ag23
(g27
S'\x00\x00\x00\x00\x00\x00\x00\x00'
p650
tp651
Rp652
aF1.0
aF0.1631
aF0.0688
aF0.2324
aF0.0128
aF0.0001
aF0.0604
aF0.0107
aF0.0076
aF0.0
aF0.0
aF0.0
aF0.0
aF0.0
aF0.0
aF0.0
asS'ts_s_sub_1_denominator'
p653
(lp654
F0.0
aF0.02
aF0.0
ag23
(g27
S'\x00\x00\x00\x00\x00\x00\x00\x00'
p655
tp656
Rp657
aF1.0
aF0.1754
aF0.0639
aF0.2084
aF0.0253
aF0.0004
aF0.0602
aF0.015
aF0.0139
aF0.0
aF0.0
aF0.0
aF0.0
aF0.0
aF0.0
aF0.0
asS'tr_fuh_7_numerator'
p658
(lp659
F0.0
aF0.02
aF0.0
ag23
(g27
S'\x00\x00\x00\x00\x00\x00\x00\x00'
p660
tp661
Rp662
aF1.0
aF0.0704
aF0.0579
aF0.495
aF0.0001
aF0.0
aF0.0773
aF0.0
aF0.0001
aF0.0
aF0.0
aF0.0
aF0.0
aF0.0
aF0.0
aF0.0
asS'ts_s_tob_1_denominator'
p663
(lp664
F0.0
aF0.02
aF0.0
ag23
(g27
S'\x00\x00\x00\x00\x00\x00\x00\x00'
p665
tp666
Rp667
aF1.0
aF0.1762
aF0.0577
aF0.1971
aF0.0262
aF0.0005
aF0.0648
aF0.0149
aF0.0198
aF0.0
aF0.0
aF0.0
aF0.0
aF0.0
aF0.0
aF0.0
asS'tr_fuh_7_denominator'
p668
(lp669
F0.0
aF0.02
aF0.0
ag23
(g27
S'\x00\x00\x00\x00\x00\x00\x00\x00'
p670
tp671
Rp672
aF1.0
aF0.0838
aF0.1259
aF0.6125
aF0.0002
aF0.0
aF0.0724
aF0.0
aF0.0003
aF0.0
aF0.0
aF0.0
aF0.0
aF0.0
aF0.0
aF0.0
asS'ts_s_fuh_30_numerator'
p673
(lp674
F0.0
aF0.02
aF0.0
ag23
(g27
S'\x00\x00\x00\x00\x00\x00\x00\x00'
p675
tp676
Rp677
aF1.0
aF0.1408
aF0.0593
aF0.2501
aF0.0037
aF0.0
aF0.064
aF0.0013
aF0.0021
aF0.0
aF0.0
aF0.0
aF0.0
aF0.0
aF0.0
aF0.0
asS'ts_s_hbips_3_overall_num'
p678
(lp679
F0.0
aF0.02
aF0.0
ag23
(g27
S'\x00\x00\x00\x00\x00\x00\x00\x00'
p680
tp681
Rp682
aF1.0
aF0.1523
aF0.1049
aF0.3076
aF0.0114
aF0.0007
aF0.1789
aF0.0024
aF0.0353
aF0.0
aF0.0
aF0.0
aF0.0
aF0.0
aF0.0
aF0.0
asS'tr_tob_2a_numerator'
p683
(lp684
F0.0
aF0.02
aF0.0
ag23
(g27
S'\x00\x00\x00\x00\x00\x00\x00\x00'
p685
tp686
Rp687
aF1.0
aF0.0742
aF0.0976
aF0.6094
aF0.0001
aF0.0
aF0.1109
aF0.0
aF0.0005
aF0.0
aF0.0
aF0.0
aF0.0
aF0.0
aF0.0
aF0.0
asS'tr_sub_1_denominator'
p688
(lp689
F0.0
aF0.02
aF0.0
ag23
(g27
S'\x00\x00\x00\x00\x00\x00\x00\x00'
p690
tp691
Rp692
aF1.0
aF0.1148
aF0.0494
aF0.2797
aF0.0008
aF0.0
aF0.0595
aF0.0
aF0.0016
aF0.0
aF0.0
aF0.0
aF0.0
aF0.0
aF0.0
aF0.0
asS'ts_s_hcp_numerator'
p693
(lp694
F0.0
aF0.02
aF0.0
ag23
(g27
S'\x00\x00\x00\x00\x00\x00\x00\x00'
p695
tp696
Rp697
aF1.0
aF0.22
aF0.0523
aF0.1505
aF0.3024
aF0.061
aF0.0612
aF0.1547
aF0.2147
aF0.0
aF0.0
aF0.0
aF0.0
aF0.0
aF0.0
aF0.0
asS'tr_fuh_30_numerator'
p698
(lp699
F0.0
aF0.02
aF0.0
ag23
(g27
S'\x00\x00\x00\x00\x00\x00\x00\x00'
p700
tp701
Rp702
aF1.0
aF0.0802
aF0.0664
aF0.4651
aF0.0001
aF0.0
aF0.0677
aF0.0
aF0.0002
aF0.0
aF0.0
aF0.0
aF0.0
aF0.0
aF0.0
aF0.0
asS'tr_tob_1_numerator'
p703
(lp704
F0.0
aF0.02
aF0.0
ag23
(g27
S'\x00\x00\x00\x00\x00\x00\x00\x00'
p705
tp706
Rp707
aF1.0
aF0.1144
aF0.047
aF0.2743
aF0.0008
aF0.0
aF0.107
aF0.0
aF0.0069
aF0.0
aF0.0
aF0.0
aF0.0
aF0.0
aF0.0
aF0.0
asS'tr_fuh_30_denominator'
p708
(lp709
F0.0
aF0.02
aF0.0
ag23
(g27
S'\x00\x00\x00\x00\x00\x00\x00\x00'
p710
tp711
Rp712
aF1.0
aF0.0888
aF0.0965
aF0.5059
aF0.0002
aF0.0
aF0.0673
aF0.0
aF0.0003
aF0.0
aF0.0
aF0.0
aF0.0
aF0.0
aF0.0
aF0.0
asS'tr_tob_2_2a_denominator'
p713
(lp714
F0.0
aF0.02
aF0.0
ag23
(g27
S'\x00\x00\x00\x00\x00\x00\x00\x00'
p715
tp716
Rp717
aF1.0
aF0.0995
aF0.1069
aF0.4754
aF0.0004
aF0.0
aF0.1232
aF0.0
aF0.0036
aF0.0
aF0.0
aF0.0
aF0.0
aF0.0
aF0.0
aF0.0
asS'tr_hbips_2_overall_den'
p718
(lp719
F0.0
aF0.02
aF0.0
ag23
(g27
S'\x00\x00\x00\x00\x00\x00\x00\x00'
p720
tp721
Rp722
aF1.0
aF0.1734
aF0.0987
aF0.262
aF0.0316
aF0.0001
aF0.1182
aF0.0
aF0.1575
aF0.0
aF0.0
aF0.0
aF0.0
aF0.0
aF0.0
aF0.0
asS'tr_hbips_7_overall_den'
p723
(lp724
F0.0
aF0.02
aF0.0
ag23
(g27
S'\x00\x00\x00\x00\x00\x00\x00\x00'
p725
tp726
Rp727
aF1.0
aF0.1206
aF0.0474
aF0.2609
aF0.001
aF0.0
aF0.1289
aF0.0
aF0.0116
aF0.0
aF0.0
aF0.0
aF0.0
aF0.0
aF0.0
aF0.0
asS'tr_hbips_5_overall_num'
p728
(lp729
F0.0
aF0.02
aF0.0
ag23
(g27
S'\x00\x00\x00\x00\x00\x00\x00\x00'
p730
tp731
Rp732
aF1.0
aF0.0573
aF0.0539
aF0.5852
aF0.0
aF0.0
aF0.1572
aF0.0
aF0.0002
aF0.0
aF0.0
aF0.0
aF0.0
aF0.0
aF0.0
aF0.0
asS'ts_s_tob_2_2a_denominator'
p733
(lp734
F0.0
aF0.02
aF0.0
ag23
(g27
S'\x00\x00\x00\x00\x00\x00\x00\x00'
p735
tp736
Rp737
aF1.0
aF0.1623
aF0.0657
aF0.2284
aF0.012
aF0.0001
aF0.0648
aF0.0048
aF0.0085
aF0.0
aF0.0
aF0.0
aF0.0
aF0.0
aF0.0
aF0.0
asS'tr_imm_2_numerator'
p738
(lp739
F0.0
aF0.02
aF0.0
ag23
(g27
S'\x00\x00\x00\x00\x00\x00\x00\x00'
p740
tp741
Rp742
aF1.0
aF0.1047
aF0.0789
aF0.3878
aF0.0004
aF0.0
aF0.0778
aF0.0
aF0.0017
aF0.0
aF0.0
aF0.0
aF0.0
aF0.0
aF0.0
aF0.0
asS'ts_s_hbips_6_overall_den'
p743
(lp744
F0.0
aF0.02
aF0.0
ag23
(g27
S'\x00\x00\x00\x00\x00\x00\x00\x00'
p745
tp746
Rp747
aF1.0
aF0.1808
aF0.0523
aF0.183
aF0.0334
aF0.0008
aF0.0616
aF0.0305
aF0.0196
aF0.0
aF0.0
aF0.0
aF0.0
aF0.0
aF0.0
aF0.0
asS'tr_tob_1_denominator'
p748
(lp749
F0.0
aF0.02
aF0.0
ag23
(g27
S'\x00\x00\x00\x00\x00\x00\x00\x00'
p750
tp751
Rp752
aF1.0
aF0.1158
aF0.0432
aF0.2597
aF0.0008
aF0.0
aF0.1029
aF0.0
aF0.007
aF0.0
aF0.0
aF0.0
aF0.0
aF0.0
aF0.0
aF0.0
asS'ts_s_hbips_5_overall_num'
p753
(lp754
F0.0
aF0.02
aF0.0
ag23
(g27
S'\x00\x00\x00\x00\x00\x00\x00\x00'
p755
tp756
Rp757
aF1.0
aF0.1192
aF0.0802
aF0.3434
aF0.0012
aF0.0
aF0.0719
aF0.0001
aF0.001
aF0.0
aF0.0
aF0.0
aF0.0
aF0.0
aF0.0
aF0.0
asS'ts_s_fuh_7_denominator'
p758
(lp759
F0.0
aF0.02
aF0.0
ag23
(g27
S'\x00\x00\x00\x00\x00\x00\x00\x00'
p760
tp761
Rp762
aF1.0
aF0.1531
aF0.0608
aF0.233
aF0.0069
aF0.0
aF0.0646
aF0.0022
aF0.0042
aF0.0
aF0.0
aF0.0
aF0.0
aF0.0
aF0.0
aF0.0
asS'ts_s_hbips_5_overall_den'
p763
(lp764
F0.0
aF0.02
aF0.0
ag23
(g27
S'\x00\x00\x00\x00\x00\x00\x00\x00'
p765
tp766
Rp767
aF1.0
aF0.1285
aF0.0791
aF0.3166
aF0.002
aF0.0
aF0.077
aF0.0005
aF0.0018
aF0.0
aF0.0
aF0.0
aF0.0
aF0.0
aF0.0
aF0.0
asS'tr_sub_1_numerator'
p768
(lp769
F0.0
aF0.02
aF0.0
ag23
(g27
S'\x00\x00\x00\x00\x00\x00\x00\x00'
p770
tp771
Rp772
aF1.0
aF0.112
aF0.0613
aF0.3196
aF0.0007
aF0.0
aF0.0575
aF0.0
aF0.0015
aF0.0
aF0.0
aF0.0
aF0.0
aF0.0
aF0.0
aF0.0
asS'ts_s_tob_2_numerator'
p773
(lp774
F0.0
aF0.02
aF0.0
ag23
(g27
S'\x00\x00\x00\x00\x00\x00\x00\x00'
p775
tp776
Rp777
aF1.0
aF0.1531
aF0.0748
aF0.2584
aF0.0074
aF0.0
aF0.0606
aF0.0034
aF0.0037
aF0.0
aF0.0
aF0.0
aF0.0
aF0.0
aF0.0
aF0.0
assI22
g0
(tRp778
S'ts_s_hbips_2_overall_den'
p779
(lp780
F0.0
aF0.02
aF0.0
ag23
(g27
S'\x00\x00\x00\x00\x00\x00\x00\x00'
p781
tp782
Rp783
aF1.0
aF0.2385
aF0.0626
aF0.1517
aF1.0
aF1.0
aF0.0749
aF1.0
aF1.0
aF0.0
aF0.0
aF0.0
aF0.0
aF0.0
aF0.0
aF0.0
asS'ts_s_hbips_3_overall_den'
p784
(lp785
F0.0
aF0.02
aF0.0
ag23
(g27
S'\x00\x00\x00\x00\x00\x00\x00\x00'
p786
tp787
Rp788
aF1.0
aF0.2385
aF0.0626
aF0.1517
aF0.9775
aF0.9539
aF0.0749
aF1.0
aF0.9887
aF0.0
aF0.0
aF0.0
aF0.0
aF0.0
aF0.0
aF0.0
assI24
g0
(tRp789
S'ts_s_fuh_measure_end_date'
p790
(lp791
F1.0
aF0.008
aF0.0
ag23
(g27
S'\x00\x00\x00\x00\x00\x00\x00\x00'
p792
tp793
Rp794
aF0.0
aF1.0
aF0.0
aF0.0
aF0.0
aF0.0
aF0.0
aF0.0
aF0.0
aF0.0
aF0.8681
aF1.0
aF0.2
aF1.0
aF0.0
aF0.0
asS'ts_s_flu_season_start_date'
p795
(lp796
F1.0
aF0.008
aF0.0
ag23
(g27
S'\x00\x00\x00\x00\x00\x00\x00\x00'
p797
tp798
Rp799
aF0.0
aF1.0
aF0.0
aF0.0
aF0.0
aF0.0
aF0.0
aF0.0
aF0.0
aF0.0
aF0.8681
aF1.0
aF0.2
aF1.0
aF0.0
aF0.0
asS'ts_s_fuh_measure_start_date'
p800
(lp801
F1.0
aF0.008
aF0.0
ag23
(g27
S'\x00\x00\x00\x00\x00\x00\x00\x00'
p802
tp803
Rp804
aF0.0
aF1.0
aF0.0
aF0.0
aF0.0
aF0.0
aF0.0
aF0.0
aF0.0
aF0.0
aF0.8681
aF1.0
aF0.2
aF1.0
aF0.0
aF0.0
asS'tr_fuh_measure_start_date'
p805
(lp806
F1.0
aF0.008
aF0.0
ag23
(g27
S'\x00\x00\x00\x00\x00\x00\x00\x00'
p807
tp808
Rp809
aF0.0
aF1.0
aF0.0
aF0.0
aF0.0
aF0.0
aF0.0
aF0.0
aF0.0
aF0.0
aF0.8681
aF1.0
aF0.2
aF1.0
aF0.0
aF0.0
asS'tr_end_date'
p810
(lp811
F1.0
aF0.008
aF0.0
ag23
(g27
S'\x00\x00\x00\x00\x00\x00\x00\x00'
p812
tp813
Rp814
aF0.0
aF1.0
aF0.0
aF0.0
aF0.0
aF0.0
aF0.0
aF0.0
aF0.0
aF0.0
aF0.8681
aF1.0
aF0.2
aF1.0
aF0.0
aF0.0
asS'tr_flu_season_start_date'
p815
(lp816
F1.0
aF0.008
aF0.0
ag23
(g27
S'\x00\x00\x00\x00\x00\x00\x00\x00'
p817
tp818
Rp819
aF0.0
aF1.0
aF0.0
aF0.0
aF0.0
aF0.0
aF0.0
aF0.0
aF0.0
aF0.0
aF0.8681
aF1.0
aF0.2
aF1.0
aF0.0
aF0.0
asS'ts_start_date'
p820
(lp821
F1.0
aF0.008
aF0.0
ag23
(g27
S'\x00\x00\x00\x00\x00\x00\x00\x00'
p822
tp823
Rp824
aF0.0
aF1.0
aF0.0
aF0.0
aF0.0
aF0.0
aF0.0
aF0.0
aF0.0
aF0.0
aF0.8681
aF1.0
aF0.2
aF1.0
aF0.0
aF0.0
asS'tr_fuh_measure_end_date'
p825
(lp826
F1.0
aF0.008
aF0.0
ag23
(g27
S'\x00\x00\x00\x00\x00\x00\x00\x00'
p827
tp828
Rp829
aF0.0
aF1.0
aF0.0
aF0.0
aF0.0
aF0.0
aF0.0
aF0.0
aF0.0
aF0.0
aF0.8681
aF1.0
aF0.2
aF1.0
aF0.0
aF0.0
asS'tr_flu_season_end_date'
p830
(lp831
F1.0
aF0.008
aF0.0
ag23
(g27
S'\x00\x00\x00\x00\x00\x00\x00\x00'
p832
tp833
Rp834
aF0.0
aF1.0
aF0.0
aF0.0
aF0.0
aF0.0
aF0.0
aF0.0
aF0.0
aF0.0
aF0.8681
aF1.0
aF0.2
aF1.0
aF0.0
aF0.0
asS'ts_s_flu_season_end_date'
p835
(lp836
F1.0
aF0.008
aF0.0
ag23
(g27
S'\x00\x00\x00\x00\x00\x00\x00\x00'
p837
tp838
Rp839
aF0.0
aF1.0
aF0.0
aF0.0
aF0.0
aF0.0
aF0.0
aF0.0
aF0.0
aF0.0
aF0.8681
aF1.0
aF0.2
aF1.0
aF0.0
aF0.0
asS'ts_end_date'
p840
(lp841
F1.0
aF0.008
aF0.0
ag23
(g27
S'\x00\x00\x00\x00\x00\x00\x00\x00'
p842
tp843
Rp844
aF0.0
aF1.0
aF0.0
aF0.0
aF0.0
aF0.0
aF0.0
aF0.0
aF0.0
aF0.0
aF0.8681
aF1.0
aF0.2
aF1.0
aF0.0
aF0.0
asS'tr_start_date'
p845
(lp846
F1.0
aF0.008
aF0.0
ag23
(g27
S'\x00\x00\x00\x00\x00\x00\x00\x00'
p847
tp848
Rp849
aF0.0
aF1.0
aF0.0
aF0.0
aF0.0
aF0.0
aF0.0
aF0.0
aF0.0
aF0.0
aF0.8681
aF1.0
aF0.2
aF1.0
aF0.0
aF0.0
ass.