ccollections
defaultdict
p0
(cdill.dill
_create_function
p1
(cdill.dill
_load_type
p2
(S'CodeType'
p3
tp4
Rp5
(I0
I0
I1
I67
S't\x00\x00\x83\x00\x00S'
p6
(Ntp7
(S'defaultdict'
p8
tp9
(tS'Run_me.py'
p10
S'<lambda>'
p11
I209
S''
p12
(t(ttp13
Rp14
c__main__
__dict__
g11
NN(dp15
tp16
Rp17
tp18
Rp19
I0
g0
(tRp20
S'tr_fuh_30_footnote'
p21
(lp22
F0.25
aF0.008
aF0.0
acnumpy.core.multiarray
scalar
p23
(cnumpy
dtype
p24
(S'f8'
p25
I0
I1
tp26
Rp27
(I3
S'<'
p28
NNNI-1
I-1
I0
tp29
bS'\x00\x00\x00\x00\x00\x00\x00\x00'
p30
tp31
Rp32
aF0.0
aF0.346
aF0.6028
aF0.5132
aF0.0
aF0.0
aF0.1789
aF0.0
aF0.0
aF0.0
aF0.0
aF0.0
aF0.0
aF0.0
aF0.0
aF0.0
asS'tr_hbips_5_overall_footnote'
p33
(lp34
F0.25
aF0.008
aF0.0
ag23
(g27
S'\x00\x00\x00\x00\x00\x00\x00\x00'
p35
tp36
Rp37
aF0.0
aF0.2286
aF1.0
aF1.0
aF0.0
aF0.0
aF0.1019
aF0.0
aF0.0
aF0.0
aF0.0
aF0.0
aF0.0
aF0.0
aF0.0
aF0.0
asS'tr_tob_2a_footnote'
p38
(lp39
F0.25
aF0.008
aF0.0
ag23
(g27
S'\x00\x00\x00\x00\x00\x00\x00\x00'
p40
tp41
Rp42
aF0.0
aF0.3182
aF0.8095
aF0.6464
aF0.0
aF0.0
aF0.1634
aF0.0
aF0.0
aF0.0
aF0.0
aF0.0
aF0.0
aF0.0
aF0.0
aF0.0
asS'tr_fuh_7_footnote'
p43
(lp44
F0.25
aF0.008
aF0.0
ag23
(g27
S'\x00\x00\x00\x00\x00\x00\x00\x00'
p45
tp46
Rp47
aF0.0
aF0.3088
aF0.8641
aF0.6884
aF0.0
aF0.0
aF0.1365
aF0.0
aF0.0
aF0.0
aF0.0
aF0.0
aF0.0
aF0.0
aF0.0
aF0.0
asS'tr_tob_2_footnote'
p48
(lp49
F0.25
aF0.008
aF0.0
ag23
(g27
S'\x00\x00\x00\x00\x00\x00\x00\x00'
p50
tp51
Rp52
aF0.0
aF0.3536
aF0.5333
aF0.4722
aF0.0
aF0.0
aF0.2113
aF0.0
aF0.0
aF0.0
aF0.0
aF0.0
aF0.0
aF0.0
aF0.0
aF0.0
assI2
g0
(tRp53
S'ts_s_fuh_measure_end_date'
p54
(lp55
F1.0
aF0.008
aF0.0
ag23
(g27
S'\x00\x00\x00\x00\x00\x00\x00\x00'
p56
tp57
Rp58
aF0.0
aF1.0
aF0.0
aF0.0
aF0.0
aF0.0
aF0.0
aF0.0
aF0.0
aF0.0
aF0.8681
aF1.0
aF0.2
aF1.0
aF0.0
aF0.0
asS'ts_s_flu_season_start_date'
p59
(lp60
F1.0
aF0.008
aF0.0
ag23
(g27
S'\x00\x00\x00\x00\x00\x00\x00\x00'
p61
tp62
Rp63
aF0.0
aF1.0
aF0.0
aF0.0
aF0.0
aF0.0
aF0.0
aF0.0
aF0.0
aF0.0
aF0.8681
aF1.0
aF0.2
aF1.0
aF0.0
aF0.0
asS'ts_s_fuh_measure_start_date'
p64
(lp65
F1.0
aF0.008
aF0.0
ag23
(g27
S'\x00\x00\x00\x00\x00\x00\x00\x00'
p66
tp67
Rp68
aF0.0
aF1.0
aF0.0
aF0.0
aF0.0
aF0.0
aF0.0
aF0.0
aF0.0
aF0.0
aF0.8681
aF1.0
aF0.2
aF1.0
aF0.0
aF0.0
asS'tr_fuh_measure_start_date'
p69
(lp70
F1.0
aF0.008
aF0.0
ag23
(g27
S'\x00\x00\x00\x00\x00\x00\x00\x00'
p71
tp72
Rp73
aF0.0
aF1.0
aF0.0
aF0.0
aF0.0
aF0.0
aF0.0
aF0.0
aF0.0
aF0.0
aF0.8681
aF1.0
aF0.2
aF1.0
aF0.0
aF0.0
asS'tr_end_date'
p74
(lp75
F1.0
aF0.008
aF0.0
ag23
(g27
S'\x00\x00\x00\x00\x00\x00\x00\x00'
p76
tp77
Rp78
aF0.0
aF1.0
aF0.0
aF0.0
aF0.0
aF0.0
aF0.0
aF0.0
aF0.0
aF0.0
aF0.8681
aF1.0
aF0.2
aF1.0
aF0.0
aF0.0
asS'tr_flu_season_start_date'
p79
(lp80
F1.0
aF0.008
aF0.0
ag23
(g27
S'\x00\x00\x00\x00\x00\x00\x00\x00'
p81
tp82
Rp83
aF0.0
aF1.0
aF0.0
aF0.0
aF0.0
aF0.0
aF0.0
aF0.0
aF0.0
aF0.0
aF0.8681
aF1.0
aF0.2
aF1.0
aF0.0
aF0.0
asS'ts_start_date'
p84
(lp85
F1.0
aF0.008
aF0.0
ag23
(g27
S'\x00\x00\x00\x00\x00\x00\x00\x00'
p86
tp87
Rp88
aF0.0
aF1.0
aF0.0
aF0.0
aF0.0
aF0.0
aF0.0
aF0.0
aF0.0
aF0.0
aF0.8681
aF1.0
aF0.2
aF1.0
aF0.0
aF0.0
asS'tr_fuh_measure_end_date'
p89
(lp90
F1.0
aF0.008
aF0.0
ag23
(g27
S'\x00\x00\x00\x00\x00\x00\x00\x00'
p91
tp92
Rp93
aF0.0
aF1.0
aF0.0
aF0.0
aF0.0
aF0.0
aF0.0
aF0.0
aF0.0
aF0.0
aF0.8681
aF1.0
aF0.2
aF1.0
aF0.0
aF0.0
asS'tr_flu_season_end_date'
p94
(lp95
F1.0
aF0.008
aF0.0
ag23
(g27
S'\x00\x00\x00\x00\x00\x00\x00\x00'
p96
tp97
Rp98
aF0.0
aF1.0
aF0.0
aF0.0
aF0.0
aF0.0
aF0.0
aF0.0
aF0.0
aF0.0
aF0.8681
aF1.0
aF0.2
aF1.0
aF0.0
aF0.0
asS'ts_s_flu_season_end_date'
p99
(lp100
F1.0
aF0.008
aF0.0
ag23
(g27
S'\x00\x00\x00\x00\x00\x00\x00\x00'
p101
tp102
Rp103
aF0.0
aF1.0
aF0.0
aF0.0
aF0.0
aF0.0
aF0.0
aF0.0
aF0.0
aF0.0
aF0.8681
aF1.0
aF0.2
aF1.0
aF0.0
aF0.0
asS'ts_end_date'
p104
(lp105
F1.0
aF0.008
aF0.0
ag23
(g27
S'\x00\x00\x00\x00\x00\x00\x00\x00'
p106
tp107
Rp108
aF0.0
aF1.0
aF0.0
aF0.0
aF0.0
aF0.0
aF0.0
aF0.0
aF0.0
aF0.0
aF0.8681
aF1.0
aF0.2
aF1.0
aF0.0
aF0.0
asS'tr_start_date'
p109
(lp110
F1.0
aF0.008
aF0.0
ag23
(g27
S'\x00\x00\x00\x00\x00\x00\x00\x00'
p111
tp112
Rp113
aF0.0
aF1.0
aF0.0
aF0.0
aF0.0
aF0.0
aF0.0
aF0.0
aF0.0
aF0.0
aF0.8681
aF1.0
aF0.2
aF1.0
aF0.0
aF0.0
assI7
g0
(tRp114
S'ts_s_hie_yes_count'
p115
(lp116
F0.25
aF0.008
aF0.0
ag23
(g27
S'\x00\x00\x00\x00\x00\x00\x00\x00'
p117
tp118
Rp119
aF0.0
aF0.1442
aF0.112
aF0.5304
aF0.0
aF0.0
aF0.0568
aF0.0
aF0.0
aF0.0
aF0.0
aF0.0
aF0.0
aF0.0
aF0.0
aF0.0
asS'ts_s_ehr_certified_percentage'
p120
(lp121
F0.0
aF0.01
aF0.0
ag23
(g27
S'\x00\x00\x00\x00\x00\x00\x00\x00'
p122
tp123
Rp124
aF0.0
aF0.1569
aF0.0134
aF0.1509
aF0.0001
aF0.0
aF0.0254
aF0.0
aF0.0
aF0.0
aF0.0
aF0.0
aF0.0
aF0.0
aF0.0
aF0.0
asS'ts_s_peoc_yes_count'
p125
(lp126
F0.25
aF0.008
aF0.0
ag23
(g27
S'\x00\x00\x00\x00\x00\x00\x00\x00'
p127
tp128
Rp129
aF0.0
aF0.1692
aF0.0967
aF0.42
aF0.0
aF0.0
aF0.0571
aF0.0001
aF0.0
aF0.0
aF0.0
aF0.0
aF0.0
aF0.0
aF0.0
aF0.0
asS'ts_s_hie_no_count'
p130
(lp131
F0.25
aF0.008
aF0.0
ag23
(g27
S'\x00\x00\x00\x00\x00\x00\x00\x00'
p132
tp133
Rp134
aF0.0
aF0.1615
aF0.1074
aF0.4639
aF0.0
aF0.0
aF0.0565
aF0.0001
aF0.0
aF0.0
aF0.0
aF0.0
aF0.0
aF0.0
aF0.0
aF0.0
asS'ts_s_peoc_no_count'
p135
(lp136
F0.25
aF0.008
aF0.0
ag23
(g27
S'\x00\x00\x00\x00\x00\x00\x00\x00'
p137
tp138
Rp139
aF0.0
aF0.1327
aF0.0998
aF0.5444
aF0.0
aF0.0
aF0.0585
aF0.0
aF0.0
aF0.0
aF0.0
aF0.0
aF0.0
aF0.0
aF0.0
aF0.0
asS'ts_s_peoc_yes_percentage'
p140
(lp141
F0.0
aF0.01
aF0.0
ag23
(g27
S'\x00\x00\x00\x00\x00\x00\x00\x00'
p142
tp143
Rp144
aF0.0
aF0.1692
aF0.037
aF0.2326
aF0.0001
aF0.0
aF0.012
aF0.0018
aF0.0
aF0.0
aF0.0
aF0.0
aF0.0
aF0.0
aF0.0
aF0.0
asS'tr_hcp_percentage'
p145
(lp146
F0.0
aF0.01
aF0.0
ag23
(g27
S'\x00\x00\x00\x00\x00\x00\x00\x00'
p147
tp148
Rp149
aF0.0
aF0.164
aF0.0613
aF0.3089
aF0.0001
aF0.0
aF0.0221
aF0.0
aF0.0
aF0.0
aF0.0
aF0.0
aF0.0
aF0.0
aF0.0
aF0.0
asS'ts_s_ehr_certified_count'
p150
(lp151
F0.25
aF0.008
aF0.0
ag23
(g27
S'\x00\x00\x00\x00\x00\x00\x00\x00'
p152
tp153
Rp154
aF0.0
aF0.15
aF0.1134
aF0.5133
aF0.0
aF0.0
aF0.0531
aF0.0
aF0.0
aF0.0
aF0.0
aF0.0
aF0.0
aF0.0
aF0.0
aF0.0
asS'ts_s_ehr_paper_count'
p155
(lp156
F0.25
aF0.008
aF0.0
ag23
(g27
S'\x00\x00\x00\x00\x00\x00\x00\x00'
p157
tp158
Rp159
aF0.0
aF0.1558
aF0.112
aF0.491
aF0.0
aF0.0
aF0.0597
aF0.0
aF0.0
aF0.0
aF0.0
aF0.0
aF0.0
aF0.0
aF0.0
aF0.0
asS'ts_s_peoc_no_percentage'
p160
(lp161
F0.0
aF0.01
aF0.0
ag23
(g27
S'\x00\x00\x00\x00\x00\x00\x00\x00'
p162
tp163
Rp164
aF0.0
aF0.1462
aF0.0519
aF0.319
aF0.0
aF0.0
aF0.0378
aF0.0
aF0.0
aF0.0
aF0.0
aF0.0
aF0.0
aF0.0
aF0.0
aF0.0
asS'ts_s_ehr_non_certified_percentage'
p165
(lp166
F0.0
aF0.01
aF0.0
ag23
(g27
S'\x00\x00\x00\x00\x00\x00\x00\x00'
p167
tp168
Rp169
aF0.0
aF0.0877
aF0.0316
aF0.4141
aF0.0
aF0.0
aF0.0995
aF0.0
aF0.0
aF0.0
aF0.0
aF0.0
aF0.0
aF0.0
aF0.0
aF0.0
assI8
g0
(tRp170
S'tr_state'
p171
(lp172
F0.5
aF0.004
aF0.0
ag23
(g27
S'\x00\x00\x00\x00\x00\x00\x00\x00'
p173
tp174
Rp175
aF0.0
aF0.4
aF0.0
aF0.0
aF0.0
aF0.0
aF0.0
aF0.0
aF0.0
aF0.0
aF0.0
aF0.0
aF1.0
aF0.0
aF0.0
aF0.0
assI12
g0
(tRp176
S'tr_hbips_2_overall_footnote'
p177
(lp178
F0.25
aF0.008
aF0.0
ag23
(g27
S'\x00\x00\x00\x00\x00\x00\x00\x00'
p179
tp180
Rp181
aF0.0
aF0.3944
aF0.0755
aF0.1594
aF0.0
aF0.0
aF0.4502
aF0.0
aF0.0
aF0.0
aF0.0
aF0.0
aF0.0
aF0.0
aF0.0
aF0.0
asS'tr_hie_footnote'
p182
(lp183
F0.25
aF0.008
aF0.0
ag23
(g27
S'\x00\x00\x00\x00\x00\x00\x00\x00'
p184
tp185
Rp186
aF0.0
aF0.3967
aF0.0443
aF0.1212
aF0.0
aF0.0
aF0.585
aF0.0
aF0.0
aF0.0
aF0.0
aF0.0
aF0.0
aF0.0
aF0.0
aF0.0
asS'tr_hbips_7_overall_footnote'
p187
(lp188
F0.25
aF0.008
aF0.0
ag23
(g27
S'\x00\x00\x00\x00\x00\x00\x00\x00'
p189
tp190
Rp191
aF0.0
aF0.3925
aF0.0993
aF0.1836
aF0.0
aF0.0
aF0.4823
aF0.0
aF0.0
aF0.0
aF0.0
aF0.0
aF0.0
aF0.0
aF0.0
aF0.0
asS'tr_hbips_3_overall_footnote'
p192
(lp193
F0.25
aF0.008
aF0.0
ag23
(g27
S'\x00\x00\x00\x00\x00\x00\x00\x00'
p194
tp195
Rp196
aF0.0
aF0.3936
aF0.0851
aF0.1694
aF0.0
aF0.0
aF0.4228
aF0.0
aF0.0
aF0.0
aF0.0
aF0.0
aF0.0
aF0.0
aF0.0
aF0.0
asS'tr_hbips_5_overall_percentage_of_total'
p197
(lp198
F0.0
aF0.01
aF0.0
ag23
(g27
S'\x00\x00\x00\x00\x00\x00\x00\x00'
p199
tp200
Rp201
aF0.0
aF0.08
aF0.0
aF0.0
aF0.0
aF0.0
aF0.0854
aF0.0
aF0.0
aF0.0
aF0.0
aF0.0
aF0.0
aF0.0
aF0.0
aF0.0
asS'tr_hbips_6_overall_footnote'
p202
(lp203
F0.25
aF0.008
aF0.0
ag23
(g27
S'\x00\x00\x00\x00\x00\x00\x00\x00'
p204
tp205
Rp206
aF0.0
aF0.394
aF0.0804
aF0.1645
aF0.0
aF0.0
aF0.5122
aF0.0
aF0.0
aF0.0
aF0.0
aF0.0
aF0.0
aF0.0
aF0.0
aF0.0
asS'ts_s_ehr_non_certified_count'
p207
(lp208
F0.25
aF0.008
aF0.0
ag23
(g27
S'\x00\x00\x00\x00\x00\x00\x00\x00'
p209
tp210
Rp211
aF0.0
aF0.1
aF0.0
aF0.0
aF0.0
aF0.0
aF0.077
aF0.0
aF0.0
aF0.0
aF0.0
aF0.0
aF0.0
aF0.0
aF0.0
aF0.0
asS'tr_ehr_use_footnote'
p212
(lp213
F0.25
aF0.008
aF0.0
ag23
(g27
S'\x00\x00\x00\x00\x00\x00\x00\x00'
p214
tp215
Rp216
aF0.0
aF0.3967
aF0.0443
aF0.1212
aF0.0
aF0.0
aF0.585
aF0.0
aF0.0
aF0.0
aF0.0
aF0.0
aF0.0
aF0.0
aF0.0
aF0.0
asS'tr_tob_2a_percentage'
p217
(lp218
F0.0
aF0.01
aF0.0
ag23
(g27
S'\x00\x00\x00\x00\x00\x00\x00\x00'
p219
tp220
Rp221
aF0.0
aF0.08
aF0.0
aF0.0
aF0.0
aF0.0
aF0.1078
aF0.0
aF0.0
aF0.0
aF0.0
aF0.0
aF0.0
aF0.0
aF0.0
aF0.0
asS'tr_fuh_7_percentage'
p222
(lp223
F0.0
aF0.01
aF0.0
ag23
(g27
S'\x00\x00\x00\x00\x00\x00\x00\x00'
p224
tp225
Rp226
aF0.0
aF0.08
aF0.0
aF0.0
aF0.0
aF0.0
aF0.2432
aF0.0
aF0.0
aF0.0
aF0.0
aF0.0
aF0.0
aF0.0
aF0.0
aF0.0
asS'tr_peoc_assessed_footnote'
p227
(lp228
F0.25
aF0.008
aF0.0
ag23
(g27
S'\x00\x00\x00\x00\x00\x00\x00\x00'
p229
tp230
Rp231
aF0.0
aF0.3967
aF0.0443
aF0.1212
aF0.0
aF0.0
aF0.585
aF0.0
aF0.0
aF0.0
aF0.0
aF0.0
aF0.0
aF0.0
aF0.0
aF0.0
assI14
g0
(tRp232
S'ts_s_hbips_2_overall_rate_per_1000'
p233
(lp234
F0.0
aF1.0
aF0.0
ag23
(g27
S'\x00\x00\x00\x00\x00\x00\x00\x00'
p235
tp236
Rp237
aF0.0
aF0.0008
aF0.0
aF0.0
aF0.0
aF0.0
aF0.0962
aF0.0
aF0.0
aF0.0
aF0.0
aF0.0
aF0.0
aF0.0
aF0.0
aF0.0
asS'ts_s_hie_no_percent'
p238
(lp239
F0.0
aF1.0
aF0.0
ag23
(g27
S'\x00\x00\x00\x00\x00\x00\x00\x00'
p240
tp241
Rp242
aF0.0
aF0.0016
aF0.0002
aF0.1452
aF0.0001
aF0.0
aF0.0135
aF0.0011
aF0.0
aF0.0
aF0.0
aF0.0
aF0.0
aF0.0
aF0.0
aF0.0
asS'ts_s_hie_yes_percent'
p243
(lp244
F0.0
aF1.0
aF0.0
ag23
(g27
S'\x00\x00\x00\x00\x00\x00\x00\x00'
p245
tp246
Rp247
aF0.0
aF0.0016
aF0.0002
aF0.1509
aF0.0001
aF0.0
aF0.0244
aF0.0
aF0.0
aF0.0
aF0.0
aF0.0
aF0.0
aF0.0
aF0.0
aF0.0
asS'ts_s_hbips_3_overall_rate_per_1000'
p248
(lp249
F0.0
aF1.0
aF0.0
ag23
(g27
S'\x00\x00\x00\x00\x00\x00\x00\x00'
p250
tp251
Rp252
aF0.0
aF0.0008
aF0.0
aF0.0
aF0.0
aF0.0
aF0.1536
aF0.0
aF0.0
aF0.0
aF0.0
aF0.0
aF0.0
aF0.0
aF0.0
aF0.0
assI15
g0
(tRp253
S'tr_city'
p254
(lp255
F0.5
aF1.0
aF0.0
ag23
(g27
S'\x00\x00\x00\x00\x00\x00\x00\x00'
p256
tp257
Rp258
aF0.0
aF0.007
aF0.0241
aF0.452
aF0.0
aF0.0
aF0.0
aF0.0
aF0.0
aF0.1535
aF0.122
aF0.0
aF1.0
aF0.0
aF0.0
aF0.0031
asS'tr_country_name'
p259
(lp260
F0.5
aF1.0
aF0.0
ag23
(g27
S'\x00\x00\x00\x00\x00\x00\x00\x00'
p261
tp262
Rp263
aF0.0
aF0.0062
aF0.0263
aF0.5384
aF0.0
aF0.0
aF0.0
aF0.0
aF0.0
aF0.121
aF0.0977
aF0.0
aF1.0
aF0.0
aF0.0
aF0.0155
asS'tr_hie_response'
p264
(lp265
F0.5
aF1.0
aF0.0
ag23
(g27
S'\x00\x00\x00\x00\x00\x00\x00\x00'
p266
tp267
Rp268
aF0.0
aF0.002
aF0.0053
aF0.7487
aF0.0
aF0.0
aF0.0
aF0.0
aF0.0
aF0.0242
aF0.0191
aF0.0
aF1.0
aF0.0
aF0.0
aF0.0
asS'tr_peoc_assessed_response'
p269
(lp270
F0.5
aF1.0
aF0.0
ag23
(g27
S'\x00\x00\x00\x00\x00\x00\x00\x00'
p271
tp272
Rp273
aF0.0
aF0.0023
aF0.0047
aF0.6136
aF0.0
aF0.0
aF0.0
aF0.0
aF0.0
aF0.0209
aF0.0165
aF0.0
aF1.0
aF0.0
aF0.0
aF0.0
assI16
g0
(tRp274
S'tr_hbips_3_overall_rate_per_1000'
p275
(lp276
F0.5
aF1.0
aF0.0
ag23
(g27
S'\x00\x00\x00\x00\x00\x00\x00\x00'
p277
tp278
Rp279
aF0.0
aF0.0021
aF0.0078
aF0.8545
aF0.0
aF0.0
aF0.0
aF0.0
aF0.0
aF0.0
aF0.9197
aF0.9851
aF0.2119
aF0.0
aF0.0
aF0.0
asS'tr_hbips_2_overall_rate_per_1000'
p280
(lp281
F0.5
aF1.0
aF0.0
ag23
(g27
S'\x00\x00\x00\x00\x00\x00\x00\x00'
p282
tp283
Rp284
aF0.0
aF0.0025
aF0.0065
aF0.6624
aF0.0
aF0.0
aF0.0
aF0.0
aF0.0
aF0.0
aF1.0
aF0.962
aF0.2304
aF0.0
aF0.0
aF0.0
assI17
g0
(tRp285
S'tr_fuh_30_denominator'
p286
(lp287
F0.0
aF0.02
aF0.0
ag23
(g27
S'\x00\x00\x00\x00\x00\x00\x00\x00'
p288
tp289
Rp290
aF1.0
aF0.0888
aF0.0965
aF0.5059
aF0.0002
aF0.0
aF0.0673
aF0.0
aF0.0003
aF0.0
aF0.0
aF0.0
aF0.0
aF0.0
aF0.0
aF0.0
asS'tr_hbips_5_overall_den'
p291
(lp292
F0.0
aF0.02
aF0.0
ag23
(g27
S'\x00\x00\x00\x00\x00\x00\x00\x00'
p293
tp294
Rp295
aF1.0
aF0.0594
aF0.0657
aF0.6244
aF0.0001
aF0.0
aF0.2004
aF0.0
aF0.0006
aF0.0
aF0.0
aF0.0
aF0.0
aF0.0
aF0.0
aF0.0
asS'tr_tob_2_numerator'
p296
(lp297
F0.0
aF0.02
aF0.0
ag23
(g27
S'\x00\x00\x00\x00\x00\x00\x00\x00'
p298
tp299
Rp300
aF1.0
aF0.0902
aF0.1058
aF0.5215
aF0.0002
aF0.0
aF0.0794
aF0.0
aF0.0005
aF0.0
aF0.0
aF0.0
aF0.0
aF0.0
aF0.0
aF0.0
asS'tr_hcp_numerator'
p301
(lp302
F0.0
aF0.02
aF0.0
ag23
(g27
S'\x00\x00\x00\x00\x00\x00\x00\x00'
p303
tp304
Rp305
aF1.0
aF0.0977
aF0.0826
aF0.4252
aF0.0005
aF0.0
aF0.2292
aF0.0
aF0.0083
aF0.0
aF0.0
aF0.0
aF0.0
aF0.0
aF0.0
aF0.0
asS'tr_tob_2_2a_denominator'
p306
(lp307
F0.0
aF0.02
aF0.0
ag23
(g27
S'\x00\x00\x00\x00\x00\x00\x00\x00'
p308
tp309
Rp310
aF1.0
aF0.0995
aF0.1069
aF0.4754
aF0.0004
aF0.0
aF0.1232
aF0.0
aF0.0036
aF0.0
aF0.0
aF0.0
aF0.0
aF0.0
aF0.0
aF0.0
asS'tr_hbips_5_overall_num'
p311
(lp312
F0.0
aF0.02
aF0.0
ag23
(g27
S'\x00\x00\x00\x00\x00\x00\x00\x00'
p313
tp314
Rp315
aF1.0
aF0.0573
aF0.0539
aF0.5852
aF0.0
aF0.0
aF0.1572
aF0.0
aF0.0002
aF0.0
aF0.0
aF0.0
aF0.0
aF0.0
aF0.0
aF0.0
asS'tr_tob_2_2a__denominator'
p316
(lp317
F0.0
aF0.02
aF0.0
ag23
(g27
S'\x00\x00\x00\x00\x00\x00\x00\x00'
p318
tp319
Rp320
aF1.0
aF0.0926
aF0.1432
aF0.5909
aF0.0003
aF0.0
aF0.1338
aF0.0
aF0.0036
aF0.0
aF0.0
aF0.0
aF0.0
aF0.0
aF0.0
aF0.0
asS'tr_tob_2a_numerator'
p321
(lp322
F0.0
aF0.02
aF0.0
ag23
(g27
S'\x00\x00\x00\x00\x00\x00\x00\x00'
p323
tp324
Rp325
aF1.0
aF0.0742
aF0.0976
aF0.6094
aF0.0001
aF0.0
aF0.1109
aF0.0
aF0.0005
aF0.0
aF0.0
aF0.0
aF0.0
aF0.0
aF0.0
aF0.0
asS'tr_fuh_7_denominator'
p326
(lp327
F0.0
aF0.02
aF0.0
ag23
(g27
S'\x00\x00\x00\x00\x00\x00\x00\x00'
p328
tp329
Rp330
aF1.0
aF0.0838
aF0.1259
aF0.6125
aF0.0002
aF0.0
aF0.0724
aF0.0
aF0.0003
aF0.0
aF0.0
aF0.0
aF0.0
aF0.0
aF0.0
aF0.0
asS'tr_hcp_denominator'
p331
(lp332
F0.0
aF0.02
aF0.0
ag23
(g27
S'\x00\x00\x00\x00\x00\x00\x00\x00'
p333
tp334
Rp335
aF1.0
aF0.1013
aF0.0887
aF0.4251
aF0.0007
aF0.0
aF0.2059
aF0.0
aF0.0095
aF0.0
aF0.0
aF0.0
aF0.0
aF0.0
aF0.0
aF0.0
asS'tr_fuh_7_numerator'
p336
(lp337
F0.0
aF0.02
aF0.0
ag23
(g27
S'\x00\x00\x00\x00\x00\x00\x00\x00'
p338
tp339
Rp340
aF1.0
aF0.0704
aF0.0579
aF0.495
aF0.0001
aF0.0
aF0.0773
aF0.0
aF0.0001
aF0.0
aF0.0
aF0.0
aF0.0
aF0.0
aF0.0
aF0.0
asS'tr_fuh_30_numerator'
p341
(lp342
F0.0
aF0.02
aF0.0
ag23
(g27
S'\x00\x00\x00\x00\x00\x00\x00\x00'
p343
tp344
Rp345
aF1.0
aF0.0802
aF0.0664
aF0.4651
aF0.0001
aF0.0
aF0.0677
aF0.0
aF0.0002
aF0.0
aF0.0
aF0.0
aF0.0
aF0.0
aF0.0
aF0.0
assI18
g0
(tRp346
S'tr_hbips_3_overall_num'
p347
(lp348
F0.0
aF0.02
aF0.0
ag23
(g27
S'\x00\x00\x00\x00\x00\x00\x00\x00'
p349
tp350
Rp351
aF1.0
aF0.0644
aF0.1185
aF0.7736
aF0.0004
aF0.0
aF1.0
aF0.0
aF0.0343
aF0.0
aF0.0
aF0.0
aF0.0
aF0.0
aF0.0
aF0.0
asS'tr_hbips_2_overall_num'
p352
(lp353
F0.0
aF0.02
aF0.0
ag23
(g27
S'\x00\x00\x00\x00\x00\x00\x00\x00'
p354
tp355
Rp356
aF1.0
aF0.072
aF0.131
aF0.7268
aF0.0005
aF0.0
aF0.7263
aF0.0
aF0.0343
aF0.0
aF0.0
aF0.0
aF0.0
aF0.0
aF0.0
aF0.0
assI19
g0
(tRp357
S'tr_sub_1_footnote'
p358
(lp359
F0.25
aF0.008
aF0.0
ag23
(g27
S'\x00\x00\x00\x00\x00\x00\x00\x00'
p360
tp361
Rp362
aF0.0
aF0.3863
aF0.1778
aF0.2495
aF0.0
aF0.0
aF0.3418
aF0.0
aF0.0
aF0.0
aF0.0
aF0.0
aF0.0
aF0.0
aF0.0
aF0.0
asS'tr_tob_1_footnote'
p363
(lp364
F0.25
aF0.008
aF0.0
ag23
(g27
S'\x00\x00\x00\x00\x00\x00\x00\x00'
p365
tp366
Rp367
aF0.0
aF0.3894
aF0.139
aF0.2189
aF0.0
aF0.0
aF0.3639
aF0.0
aF0.0
aF0.0
aF0.0
aF0.0
aF0.0
aF0.0
aF0.0
aF0.0
asS'tr_hcp_footnote'
p368
(lp369
F0.25
aF0.008
aF0.0
ag23
(g27
S'\x00\x00\x00\x00\x00\x00\x00\x00'
p370
tp371
Rp372
aF0.0
aF0.3825
aF0.2245
aF0.2832
aF0.0
aF0.0
aF0.295
aF0.0
aF0.0
aF0.0
aF0.0
aF0.0
aF0.0
aF0.0
aF0.0
aF0.0
asS'tr_imm_2_footnote'
p373
(lp374
F0.25
aF0.008
aF0.0
ag23
(g27
S'\x00\x00\x00\x00\x00\x00\x00\x00'
p375
tp376
Rp377
aF0.0
aF0.3825
aF0.2245
aF0.2832
aF0.0
aF0.0
aF0.3276
aF0.0
aF0.0
aF0.0
aF0.0
aF0.0
aF0.0
aF0.0
aF0.0
aF0.0
assI20
g0
(tRp378
S'tr_tob_1_percentage'
p379
(lp380
F0.0
aF0.01
aF0.0
ag23
(g27
S'\x00\x00\x00\x00\x00\x00\x00\x00'
p381
tp382
Rp383
aF0.0
aF0.08
aF0.0
aF0.0
aF0.0
aF0.0
aF0.0157
aF0.0
aF0.0
aF0.0
aF0.0
aF0.0
aF0.0
aF0.0
aF0.0
aF0.0
asS'tr_imm_2_percentage'
p384
(lp385
F0.0
aF0.01
aF0.0
ag23
(g27
S'\x00\x00\x00\x00\x00\x00\x00\x00'
p386
tp387
Rp388
aF0.0
aF0.08
aF0.0
aF0.0
aF0.0
aF0.0
aF0.0292
aF0.0
aF0.0
aF0.0
aF0.0
aF0.0
aF0.0
aF0.0
aF0.0
aF0.0
asS'ts_s_tob_2a_percentage'
p389
(lp390
F0.0
aF0.01
aF0.0
ag23
(g27
S'\x00\x00\x00\x00\x00\x00\x00\x00'
p391
tp392
Rp393
aF0.0
aF0.16
aF0.0
aF0.0
aF0.0001
aF0.0
aF0.0215
aF0.0004
aF0.0
aF0.0
aF0.0
aF0.0
aF0.0
aF0.0
aF0.0
aF0.0
asS'tr_fuh_30_percentage'
p394
(lp395
F0.0
aF0.01
aF0.0
ag23
(g27
S'\x00\x00\x00\x00\x00\x00\x00\x00'
p396
tp397
Rp398
aF0.0
aF0.08
aF0.0
aF0.0
aF0.0
aF0.0
aF0.0558
aF0.0
aF0.0
aF0.0
aF0.0
aF0.0
aF0.0
aF0.0
aF0.0
aF0.0
asS'ts_s_sub_1_percentage'
p399
(lp400
F0.0
aF0.01
aF0.0
ag23
(g27
S'\x00\x00\x00\x00\x00\x00\x00\x00'
p401
tp402
Rp403
aF0.0
aF0.16
aF0.0
aF0.0
aF0.0002
aF0.0
aF0.0066
aF0.002
aF0.0
aF0.0
aF0.0
aF0.0
aF0.0
aF0.0
aF0.0
aF0.0
asS'ts_s_ehr_paper_percentage'
p404
(lp405
F0.0
aF0.01
aF0.0
ag23
(g27
S'\x00\x00\x00\x00\x00\x00\x00\x00'
p406
tp407
Rp408
aF0.0
aF0.1615
aF0.0069
aF0.1047
aF0.0001
aF0.0
aF0.0156
aF0.0007
aF0.0
aF0.0
aF0.0
aF0.0
aF0.0
aF0.0
aF0.0
aF0.0
asS'ts_s_hbips_5_overall_percentage_of_total'
p409
(lp410
F0.0
aF0.01
aF0.0
ag23
(g27
S'\x00\x00\x00\x00\x00\x00\x00\x00'
p411
tp412
Rp413
aF0.0
aF0.16
aF0.0
aF0.0
aF0.0001
aF0.0
aF0.0164
aF0.0008
aF0.0
aF0.0
aF0.0
aF0.0
aF0.0
aF0.0
aF0.0
aF0.0
asS'tr_tob_2_percentage'
p414
(lp415
F0.0
aF0.01
aF0.0
ag23
(g27
S'\x00\x00\x00\x00\x00\x00\x00\x00'
p416
tp417
Rp418
aF0.0
aF0.08
aF0.0
aF0.0
aF0.0
aF0.0
aF0.0473
aF0.0
aF0.0
aF0.0
aF0.0
aF0.0
aF0.0
aF0.0
aF0.0
aF0.0
asS'tr_hbips_6_overall_percentage_of_total'
p419
(lp420
F0.0
aF0.01
aF0.0
ag23
(g27
S'\x00\x00\x00\x00\x00\x00\x00\x00'
p421
tp422
Rp423
aF0.0
aF0.08
aF0.0
aF0.0
aF0.0
aF0.0
aF0.0175
aF0.0
aF0.0
aF0.0
aF0.0
aF0.0
aF0.0
aF0.0
aF0.0
aF0.0
asS'ts_s_tob_1_percentage'
p424
(lp425
F0.0
aF0.01
aF0.0
ag23
(g27
S'\x00\x00\x00\x00\x00\x00\x00\x00'
p426
tp427
Rp428
aF0.0
aF0.16
aF0.0
aF0.0
aF0.0002
aF0.0
aF0.0052
aF0.0023
aF0.0
aF0.0
aF0.0
aF0.0
aF0.0
aF0.0
aF0.0
aF0.0
asS'tr_zip_code'
p429
(lp430
F0.25
aF0.008
aF0.0
ag23
(g27
S'\x00\x00\x00\x00\x00\x00\x00\x00'
p431
tp432
Rp433
aF0.0
aF0.49
aF0.0446
aF0.0986
aF0.0913
aF0.0001
aF0.0358
aF0.0227
aF0.0281
aF0.0
aF0.0
aF0.0
aF0.0
aF0.0
aF0.0
aF0.0
asS'ts_s_hcp_percentage'
p434
(lp435
F0.0
aF0.01
aF0.0
ag23
(g27
S'\x00\x00\x00\x00\x00\x00\x00\x00'
p436
tp437
Rp438
aF0.0
aF0.16
aF0.0
aF0.0
aF0.0002
aF0.0
aF0.0051
aF0.0023
aF0.0
aF0.0
aF0.0
aF0.0
aF0.0
aF0.0
aF0.0
aF0.0
asS'tr_sub_1_percentage'
p439
(lp440
F0.0
aF0.01
aF0.0
ag23
(g27
S'\x00\x00\x00\x00\x00\x00\x00\x00'
p441
tp442
Rp443
aF0.0
aF0.08
aF0.0
aF0.0
aF0.0
aF0.0
aF0.0208
aF0.0
aF0.0
aF0.0
aF0.0
aF0.0
aF0.0
aF0.0
aF0.0
aF0.0
asS'ts_s_imm_2_percentage'
p444
(lp445
F0.0
aF0.01
aF0.0
ag23
(g27
S'\x00\x00\x00\x00\x00\x00\x00\x00'
p446
tp447
Rp448
aF0.0
aF0.16
aF0.0
aF0.0
aF0.0001
aF0.0
aF0.0105
aF0.0012
aF0.0
aF0.0
aF0.0
aF0.0
aF0.0
aF0.0
aF0.0
aF0.0
asS'ts_s_fuh_7_percentage'
p449
(lp450
F0.0
aF0.01
aF0.0
ag23
(g27
S'\x00\x00\x00\x00\x00\x00\x00\x00'
p451
tp452
Rp453
aF0.0
aF0.16
aF0.0
aF0.0
aF0.0001
aF0.0
aF0.0155
aF0.0006
aF0.0
aF0.0
aF0.0
aF0.0
aF0.0
aF0.0
aF0.0
aF0.0
asS'ts_s_tob_2_percentage'
p454
(lp455
F0.0
aF0.01
aF0.0
ag23
(g27
S'\x00\x00\x00\x00\x00\x00\x00\x00'
p456
tp457
Rp458
aF0.0
aF0.16
aF0.0
aF0.0
aF0.0001
aF0.0
aF0.0147
aF0.0007
aF0.0
aF0.0
aF0.0
aF0.0
aF0.0
aF0.0
aF0.0
aF0.0
asS'ts_s_hbips_6_overall_percentage_of_total'
p459
(lp460
F0.0
aF0.01
aF0.0
ag23
(g27
S'\x00\x00\x00\x00\x00\x00\x00\x00'
p461
tp462
Rp463
aF0.0
aF0.16
aF0.0
aF0.0
aF0.0002
aF0.0
aF0.0071
aF0.0014
aF0.0
aF0.0
aF0.0
aF0.0
aF0.0
aF0.0
aF0.0
aF0.0
asS'ts_s_fuh_30_percentage'
p464
(lp465
F0.0
aF0.01
aF0.0
ag23
(g27
S'\x00\x00\x00\x00\x00\x00\x00\x00'
p466
tp467
Rp468
aF0.0
aF0.16
aF0.0
aF0.0
aF0.0001
aF0.0
aF0.0109
aF0.0009
aF0.0
aF0.0
aF0.0
aF0.0
aF0.0
aF0.0
aF0.0
aF0.0
asS'ts_s_hbips_7_overall_percentage_of_total'
p469
(lp470
F0.0
aF0.01
aF0.0
ag23
(g27
S'\x00\x00\x00\x00\x00\x00\x00\x00'
p471
tp472
Rp473
aF0.0
aF0.16
aF0.0
aF0.0
aF0.0002
aF0.0
aF0.0085
aF0.0013
aF0.0
aF0.0
aF0.0
aF0.0
aF0.0
aF0.0
aF0.0
aF0.0
asS'tr_hbips_7_overall_percentage_of_total'
p474
(lp475
F0.0
aF0.01
aF0.0
ag23
(g27
S'\x00\x00\x00\x00\x00\x00\x00\x00'
p476
tp477
Rp478
aF0.0
aF0.08
aF0.0
aF0.0
aF0.0
aF0.0
aF0.0218
aF0.0
aF0.0
aF0.0
aF0.0
aF0.0
aF0.0
aF0.0
aF0.0
aF0.0
assI21
g0
(tRp479
S'tr_hbips_6_measure_description'
p480
(lp481
F0.5
aF1.0
aF0.0
ag23
(g27
S'\x00\x00\x00\x00\x00\x00\x00\x00'
p482
tp483
Rp484
aF0.0
aF0.0344
aF0.0
aF0.0
aF0.0
aF0.0
aF0.0
aF0.0
aF0.0
aF0.5116
aF0.5048
aF0.0
aF1.0
aF0.0
aF0.0
aF0.7214
asS'ts_s_hbips_6_measure_description'
p485
(lp486
F0.5
aF1.0
aF0.0
ag23
(g27
S'\x00\x00\x00\x00\x00\x00\x00\x00'
p487
tp488
Rp489
aF0.0
aF0.0344
aF0.0
aF0.0
aF0.0
aF0.0
aF0.0
aF0.0
aF0.0
aF0.5116
aF0.5048
aF0.0
aF1.0
aF0.0
aF0.0
aF0.7214
asS'tr_hbips_2_measure_description'
p490
(lp491
F0.5
aF1.0
aF0.0
ag23
(g27
S'\x00\x00\x00\x00\x00\x00\x00\x00'
p492
tp493
Rp494
aF0.0
aF0.0248
aF0.0
aF0.0
aF0.0
aF0.0
aF0.0
aF0.0
aF0.0
aF0.5325
aF0.5599
aF0.0
aF1.0
aF0.0
aF0.0
aF1.0
asS'ts_s_hbips_2_measure_description'
p495
(lp496
F0.5
aF1.0
aF0.0
ag23
(g27
S'\x00\x00\x00\x00\x00\x00\x00\x00'
p497
tp498
Rp499
aF0.0
aF0.0248
aF0.0
aF0.0
aF0.0
aF0.0
aF0.0
aF0.0
aF0.0
aF0.5325
aF0.5599
aF0.0
aF1.0
aF0.0
aF0.0
aF1.0
assI22
g0
(tRp500
S'ts_s_hbips_5_measure_description'
p501
(lp502
F0.5
aF1.0
aF0.0
ag23
(g27
S'\x00\x00\x00\x00\x00\x00\x00\x00'
p503
tp504
Rp505
aF0.0
aF0.0704
aF0.0
aF0.0
aF0.0
aF0.0
aF0.0
aF0.0
aF0.0
aF0.5
aF0.3945
aF0.0
aF1.0
aF0.0
aF0.0
aF0.0
asS'tr_hbips_5_measure_description'
p506
(lp507
F0.5
aF1.0
aF0.0
ag23
(g27
S'\x00\x00\x00\x00\x00\x00\x00\x00'
p508
tp509
Rp510
aF0.0
aF0.0704
aF0.0
aF0.0
aF0.0
aF0.0
aF0.0
aF0.0
aF0.0
aF0.5
aF0.3945
aF0.0
aF1.0
aF0.0
aF0.0
aF0.0
asS'ts_s_hbips_3_measure_description'
p511
(lp512
F0.5
aF1.0
aF0.0
ag23
(g27
S'\x00\x00\x00\x00\x00\x00\x00\x00'
p513
tp514
Rp515
aF0.0
aF0.0144
aF0.0
aF0.0
aF0.0
aF0.0
aF0.0
aF0.0
aF0.0
aF0.6111
aF0.4822
aF0.0
aF1.0
aF0.0
aF0.0
aF0.0
asS'tr_hbips_3_measure_description'
p516
(lp517
F0.5
aF1.0
aF0.0
ag23
(g27
S'\x00\x00\x00\x00\x00\x00\x00\x00'
p518
tp519
Rp520
aF0.0
aF0.0144
aF0.0
aF0.0
aF0.0
aF0.0
aF0.0
aF0.0
aF0.0
aF0.6111
aF0.4822
aF0.0
aF1.0
aF0.0
aF0.0
aF0.0
asS'tr_sub_1_measure_description'
p521
(lp522
F0.5
aF1.0
aF0.0
ag23
(g27
S'\x00\x00\x00\x00\x00\x00\x00\x00'
p523
tp524
Rp525
aF0.0
aF0.0168
aF0.0
aF0.0
aF0.0
aF0.0
aF0.0
aF0.0
aF0.0
aF0.5237
aF0.4132
aF0.0
aF1.0
aF0.0
aF0.0
aF0.0
asS'ts_s_hie_measure_description'
p526
(lp527
F0.5
aF1.0
aF0.0
ag23
(g27
S'\x00\x00\x00\x00\x00\x00\x00\x00'
p528
tp529
Rp530
aF0.0
aF0.0416
aF0.0
aF0.0
aF0.0
aF0.0
aF0.0
aF0.0
aF0.0
aF0.5292
aF0.4175
aF0.0
aF1.0
aF0.0
aF0.0
aF0.0
asS'tr_peoc_measure_description'
p531
(lp532
F0.5
aF1.0
aF0.0
ag23
(g27
S'\x00\x00\x00\x00\x00\x00\x00\x00'
p533
tp534
Rp535
aF0.0
aF0.032
aF0.0
aF0.0
aF0.0
aF0.0
aF0.0
aF0.0
aF0.0
aF0.6876
aF0.5425
aF0.0
aF1.0
aF0.0
aF0.0
aF0.0
asS'ts_s_imm_2_measure_description'
p536
(lp537
F0.5
aF1.0
aF0.0
ag23
(g27
S'\x00\x00\x00\x00\x00\x00\x00\x00'
p538
tp539
Rp540
aF0.0
aF0.0176
aF0.0
aF0.0
aF0.0
aF0.0
aF0.0
aF0.0
aF0.0
aF0.2503
aF0.1975
aF0.0
aF1.0
aF0.0
aF0.0
aF0.0
asS'ts_s_sub_1_measure_description'
p541
(lp542
F0.5
aF1.0
aF0.0
ag23
(g27
S'\x00\x00\x00\x00\x00\x00\x00\x00'
p543
tp544
Rp545
aF0.0
aF0.0168
aF0.0
aF0.0
aF0.0
aF0.0
aF0.0
aF0.0
aF0.0
aF0.5237
aF0.4132
aF0.0
aF1.0
aF0.0
aF0.0
aF0.0
asS'ts_tob_2_2a_measure_desc'
p546
(lp547
F0.5
aF1.0
aF0.0
ag23
(g27
S'\x00\x00\x00\x00\x00\x00\x00\x00'
p548
tp549
Rp550
aF0.0
aF0.0339
aF0.0276
aF0.1003
aF0.0
aF0.0
aF0.0
aF0.0
aF0.0
aF0.6744
aF0.5716
aF0.0
aF1.0
aF0.0
aF0.2163
aF0.0
asS'ts_s_peoc_measure_description'
p551
(lp552
F0.5
aF1.0
aF0.0
ag23
(g27
S'\x00\x00\x00\x00\x00\x00\x00\x00'
p553
tp554
Rp555
aF0.0
aF0.032
aF0.0
aF0.0
aF0.0
aF0.0
aF0.0
aF0.0
aF0.0
aF0.6876
aF0.5425
aF0.0
aF1.0
aF0.0
aF0.0
aF0.0
asS'ts_s_hcp_measure_description'
p556
(lp557
F0.5
aF1.0
aF0.0
ag23
(g27
S'\x00\x00\x00\x00\x00\x00\x00\x00'
p558
tp559
Rp560
aF0.0
aF0.0336
aF0.0
aF0.0
aF0.0
aF0.0
aF0.0
aF0.0
aF0.0
aF0.3927
aF0.3099
aF0.0
aF1.0
aF0.0
aF0.0
aF0.0
asS'tr_hie_measure_description'
p561
(lp562
F0.5
aF1.0
aF0.0
ag23
(g27
S'\x00\x00\x00\x00\x00\x00\x00\x00'
p563
tp564
Rp565
aF0.0
aF0.0416
aF0.0
aF0.0
aF0.0
aF0.0
aF0.0
aF0.0
aF0.0
aF0.5292
aF0.4175
aF0.0
aF1.0
aF0.0
aF0.0
aF0.0
asS'ts_s_tob_1_measure_description'
p566
(lp567
F0.5
aF1.0
aF0.0
ag23
(g27
S'\x00\x00\x00\x00\x00\x00\x00\x00'
p568
tp569
Rp570
aF0.0
aF0.0168
aF0.0
aF0.0
aF0.0
aF0.0
aF0.0
aF0.0
aF0.0
aF0.5237
aF0.4132
aF0.0
aF1.0
aF0.0
aF0.0
aF0.0
asS'tr_imm_2_measure_description'
p571
(lp572
F0.5
aF1.0
aF0.0
ag23
(g27
S'\x00\x00\x00\x00\x00\x00\x00\x00'
p573
tp574
Rp575
aF0.0
aF0.0176
aF0.0
aF0.0
aF0.0
aF0.0
aF0.0
aF0.0
aF0.0
aF0.2503
aF0.1975
aF0.0
aF1.0
aF0.0
aF0.0
aF0.0
asS'tr_hcp_measure_description'
p576
(lp577
F0.5
aF1.0
aF0.0
ag23
(g27
S'\x00\x00\x00\x00\x00\x00\x00\x00'
p578
tp579
Rp580
aF0.0
aF0.0336
aF0.0
aF0.0
aF0.0
aF0.0
aF0.0
aF0.0
aF0.0
aF0.3927
aF0.3099
aF0.0
aF1.0
aF0.0
aF0.0
aF0.0
asS'tr_tob_1_measure_description'
p581
(lp582
F0.5
aF1.0
aF0.0
ag23
(g27
S'\x00\x00\x00\x00\x00\x00\x00\x00'
p583
tp584
Rp585
aF0.0
aF0.0168
aF0.0
aF0.0
aF0.0
aF0.0
aF0.0
aF0.0
aF0.0
aF0.5237
aF0.4132
aF0.0
aF1.0
aF0.0
aF0.0
aF0.0
assI23
g0
(tRp586
S'ts_st_no'
p587
(lp588
F0.0
aF1.0
aF0.0
ag23
(g27
S'\x00\x00\x00\x00\x00\x00\x00\x00'
p589
tp590
Rp591
aF1.0
aF0.0028
aF0.0022
aF0.3431
aF0.0038
aF0.0
aF0.0817
aF0.0003
aF0.0042
aF0.0
aF0.0
aF0.0
aF0.0
aF0.0
aF0.0
aF0.0
assI24
g0
(tRp592
S'ts_s_hbips_7_overall_den'
p593
(lp594
F0.0
aF0.02
aF0.0
ag23
(g27
S'\x00\x00\x00\x00\x00\x00\x00\x00'
p595
tp596
Rp597
aF1.0
aF0.1808
aF0.0523
aF0.183
aF0.0334
aF0.0008
aF0.0616
aF0.0305
aF0.0196
aF0.0
aF0.0
aF0.0
aF0.0
aF0.0
aF0.0
aF0.0
asS'ts_s_tob_1_denominator'
p598
(lp599
F0.0
aF0.02
aF0.0
ag23
(g27
S'\x00\x00\x00\x00\x00\x00\x00\x00'
p600
tp601
Rp602
aF1.0
aF0.1762
aF0.0577
aF0.1971
aF0.0262
aF0.0005
aF0.0648
aF0.0149
aF0.0198
aF0.0
aF0.0
aF0.0
aF0.0
aF0.0
aF0.0
aF0.0
asS'ts_s_sub_1_numerator'
p603
(lp604
F0.0
aF0.02
aF0.0
ag23
(g27
S'\x00\x00\x00\x00\x00\x00\x00\x00'
p605
tp606
Rp607
aF1.0
aF0.1731
aF0.0679
aF0.2176
aF0.0221
aF0.0003
aF0.06
aF0.0125
aF0.012
aF0.0
aF0.0
aF0.0
aF0.0
aF0.0
aF0.0
aF0.0
asS'ts_s_tob_1_numerator'
p608
(lp609
F0.0
aF0.02
aF0.0
ag23
(g27
S'\x00\x00\x00\x00\x00\x00\x00\x00'
p610
tp611
Rp612
aF1.0
aF0.1754
aF0.057
aF0.1967
aF0.024
aF0.0004
aF0.0654
aF0.0122
aF0.0186
aF0.0
aF0.0
aF0.0
aF0.0
aF0.0
aF0.0
aF0.0
asS'ts_s_tob_2_2a__denominator'
p613
(lp614
F0.0
aF0.02
aF0.0
ag23
(g27
S'\x00\x00\x00\x00\x00\x00\x00\x00'
p615
tp616
Rp617
aF1.0
aF0.1623
aF0.0657
aF0.2284
aF0.012
aF0.0001
aF0.0648
aF0.0048
aF0.0085
aF0.0
aF0.0
aF0.0
aF0.0
aF0.0
aF0.0
aF0.0
asS'ts_s_hbips_7_overall_num'
p618
(lp619
F0.0
aF0.02
aF0.0
ag23
(g27
S'\x00\x00\x00\x00\x00\x00\x00\x00'
p620
tp621
Rp622
aF1.0
aF0.18
aF0.0523
aF0.1839
aF0.0263
aF0.0004
aF0.0596
aF0.0279
aF0.0153
aF0.0
aF0.0
aF0.0
aF0.0
aF0.0
aF0.0
aF0.0
asS'ts_s_fuh_30_denominator'
p623
(lp624
F0.0
aF0.02
aF0.0
ag23
(g27
S'\x00\x00\x00\x00\x00\x00\x00\x00'
p625
tp626
Rp627
aF1.0
aF0.1531
aF0.0608
aF0.233
aF0.0069
aF0.0
aF0.0646
aF0.0022
aF0.0042
aF0.0
aF0.0
aF0.0
aF0.0
aF0.0
aF0.0
aF0.0
asS'ts_s_tob_2_2a_denominator'
p628
(lp629
F0.0
aF0.02
aF0.0
ag23
(g27
S'\x00\x00\x00\x00\x00\x00\x00\x00'
p630
tp631
Rp632
aF1.0
aF0.1623
aF0.0657
aF0.2284
aF0.012
aF0.0001
aF0.0648
aF0.0048
aF0.0085
aF0.0
aF0.0
aF0.0
aF0.0
aF0.0
aF0.0
aF0.0
asS'ts_s_sub_1_denominator'
p633
(lp634
F0.0
aF0.02
aF0.0
ag23
(g27
S'\x00\x00\x00\x00\x00\x00\x00\x00'
p635
tp636
Rp637
aF1.0
aF0.1754
aF0.0639
aF0.2084
aF0.0253
aF0.0004
aF0.0602
aF0.015
aF0.0139
aF0.0
aF0.0
aF0.0
aF0.0
aF0.0
aF0.0
aF0.0
asS'ts_s_imm_2_denominator'
p638
(lp639
F0.0
aF0.02
aF0.0
ag23
(g27
S'\x00\x00\x00\x00\x00\x00\x00\x00'
p640
tp641
Rp642
aF1.0
aF0.17
aF0.0619
aF0.2118
aF0.018
aF0.0003
aF0.071
aF0.0174
aF0.0179
aF0.0
aF0.0
aF0.0
aF0.0
aF0.0
aF0.0
aF0.0
asS'ts_s_fuh_7_denominator'
p643
(lp644
F0.0
aF0.02
aF0.0
ag23
(g27
S'\x00\x00\x00\x00\x00\x00\x00\x00'
p645
tp646
Rp647
aF1.0
aF0.1531
aF0.0608
aF0.233
aF0.0069
aF0.0
aF0.0646
aF0.0022
aF0.0042
aF0.0
aF0.0
aF0.0
aF0.0
aF0.0
aF0.0
aF0.0
asS'ts_s_hbips_6_overall_num'
p648
(lp649
F0.0
aF0.02
aF0.0
ag23
(g27
S'\x00\x00\x00\x00\x00\x00\x00\x00'
p650
tp651
Rp652
aF1.0
aF0.1808
aF0.0523
aF0.183
aF0.0283
aF0.0005
aF0.0596
aF0.0292
aF0.0165
aF0.0
aF0.0
aF0.0
aF0.0
aF0.0
aF0.0
aF0.0
asS'ts_s_imm_2_numerator'
p653
(lp654
F0.0
aF0.02
aF0.0
ag23
(g27
S'\x00\x00\x00\x00\x00\x00\x00\x00'
p655
tp656
Rp657
aF1.0
aF0.1631
aF0.0688
aF0.2324
aF0.0128
aF0.0001
aF0.0604
aF0.0107
aF0.0076
aF0.0
aF0.0
aF0.0
aF0.0
aF0.0
aF0.0
aF0.0
asS'ts_s_hbips_6_overall_den'
p658
(lp659
F0.0
aF0.02
aF0.0
ag23
(g27
S'\x00\x00\x00\x00\x00\x00\x00\x00'
p660
tp661
Rp662
aF1.0
aF0.1808
aF0.0523
aF0.183
aF0.0334
aF0.0008
aF0.0616
aF0.0305
aF0.0196
aF0.0
aF0.0
aF0.0
aF0.0
aF0.0
aF0.0
aF0.0
assI25
g0
(tRp663
S'ts_s_fuh_30_numerator'
p664
(lp665
F0.0
aF0.02
aF0.0
ag23
(g27
S'\x00\x00\x00\x00\x00\x00\x00\x00'
p666
tp667
Rp668
aF1.0
aF0.1408
aF0.0593
aF0.2501
aF0.0037
aF0.0
aF0.064
aF0.0013
aF0.0021
aF0.0
aF0.0
aF0.0
aF0.0
aF0.0
aF0.0
aF0.0
asS'tr_hbips_6_overall_num'
p669
(lp670
F0.0
aF0.02
aF0.0
ag23
(g27
S'\x00\x00\x00\x00\x00\x00\x00\x00'
p671
tp672
Rp673
aF1.0
aF0.1186
aF0.0481
aF0.2675
aF0.0009
aF0.0
aF0.0653
aF0.0
aF0.0024
aF0.0
aF0.0
aF0.0
aF0.0
aF0.0
aF0.0
aF0.0
asS'tr_tob_1_numerator'
p674
(lp675
F0.0
aF0.02
aF0.0
ag23
(g27
S'\x00\x00\x00\x00\x00\x00\x00\x00'
p676
tp677
Rp678
aF1.0
aF0.1144
aF0.047
aF0.2743
aF0.0008
aF0.0
aF0.107
aF0.0
aF0.0069
aF0.0
aF0.0
aF0.0
aF0.0
aF0.0
aF0.0
aF0.0
asS'ts_s_hbips_3_overall_num'
p679
(lp680
F0.0
aF0.02
aF0.0
ag23
(g27
S'\x00\x00\x00\x00\x00\x00\x00\x00'
p681
tp682
Rp683
aF1.0
aF0.1523
aF0.1049
aF0.3076
aF0.0114
aF0.0007
aF0.1789
aF0.0024
aF0.0353
aF0.0
aF0.0
aF0.0
aF0.0
aF0.0
aF0.0
aF0.0
asS'tr_hbips_7_overall_num'
p684
(lp685
F0.0
aF0.02
aF0.0
ag23
(g27
S'\x00\x00\x00\x00\x00\x00\x00\x00'
p686
tp687
Rp688
aF1.0
aF0.1171
aF0.0526
aF0.2835
aF0.0008
aF0.0
aF0.0654
aF0.0
aF0.002
aF0.0
aF0.0
aF0.0
aF0.0
aF0.0
aF0.0
aF0.0
asS'ts_s_hbips_2_overall_num'
p689
(lp690
F0.0
aF0.02
aF0.0
ag23
(g27
S'\x00\x00\x00\x00\x00\x00\x00\x00'
p691
tp692
Rp693
aF1.0
aF0.1554
aF0.1372
aF0.3447
aF0.0164
aF0.0008
aF0.133
aF0.0019
aF0.0356
aF0.0
aF0.0
aF0.0
aF0.0
aF0.0
aF0.0
aF0.0
asS'tr_imm_2_denominator'
p694
(lp695
F0.0
aF0.02
aF0.0
ag23
(g27
S'\x00\x00\x00\x00\x00\x00\x00\x00'
p696
tp697
Rp698
aF1.0
aF0.1105
aF0.0622
aF0.3264
aF0.0006
aF0.0
aF0.1679
aF0.0
aF0.0085
aF0.0
aF0.0
aF0.0
aF0.0
aF0.0
aF0.0
aF0.0
asS'tr_imm_2_numerator'
p699
(lp700
F0.0
aF0.02
aF0.0
ag23
(g27
S'\x00\x00\x00\x00\x00\x00\x00\x00'
p701
tp702
Rp703
aF1.0
aF0.1047
aF0.0789
aF0.3878
aF0.0004
aF0.0
aF0.0778
aF0.0
aF0.0017
aF0.0
aF0.0
aF0.0
aF0.0
aF0.0
aF0.0
aF0.0
asS'tr_hbips_7_overall_den'
p704
(lp705
F0.0
aF0.02
aF0.0
ag23
(g27
S'\x00\x00\x00\x00\x00\x00\x00\x00'
p706
tp707
Rp708
aF1.0
aF0.1206
aF0.0474
aF0.2609
aF0.001
aF0.0
aF0.1289
aF0.0
aF0.0116
aF0.0
aF0.0
aF0.0
aF0.0
aF0.0
aF0.0
aF0.0
asS'ts_s_fuh_7_numerator'
p709
(lp710
F0.0
aF0.02
aF0.0
ag23
(g27
S'\x00\x00\x00\x00\x00\x00\x00\x00'
p711
tp712
Rp713
aF1.0
aF0.13
aF0.069
aF0.292
aF0.0021
aF0.0
aF0.0674
aF0.0006
aF0.0014
aF0.0
aF0.0
aF0.0
aF0.0
aF0.0
aF0.0
aF0.0
asS'tr_hbips_6_overall_den'
p714
(lp715
F0.0
aF0.02
aF0.0
ag23
(g27
S'\x00\x00\x00\x00\x00\x00\x00\x00'
p716
tp717
Rp718
aF1.0
aF0.121
aF0.0437
aF0.25
aF0.0011
aF0.0
aF0.1284
aF0.0
aF0.0116
aF0.0
aF0.0
aF0.0
aF0.0
aF0.0
aF0.0
aF0.0
asS'tr_tob_1_denominator'
p719
(lp720
F0.0
aF0.02
aF0.0
ag23
(g27
S'\x00\x00\x00\x00\x00\x00\x00\x00'
p721
tp722
Rp723
aF1.0
aF0.1158
aF0.0432
aF0.2597
aF0.0008
aF0.0
aF0.1029
aF0.0
aF0.007
aF0.0
aF0.0
aF0.0
aF0.0
aF0.0
aF0.0
aF0.0
asS'ts_s_hbips_5_overall_num'
p724
(lp725
F0.0
aF0.02
aF0.0
ag23
(g27
S'\x00\x00\x00\x00\x00\x00\x00\x00'
p726
tp727
Rp728
aF1.0
aF0.1192
aF0.0802
aF0.3434
aF0.0012
aF0.0
aF0.0719
aF0.0001
aF0.001
aF0.0
aF0.0
aF0.0
aF0.0
aF0.0
aF0.0
aF0.0
asS'tr_sub_1_denominator'
p729
(lp730
F0.0
aF0.02
aF0.0
ag23
(g27
S'\x00\x00\x00\x00\x00\x00\x00\x00'
p731
tp732
Rp733
aF1.0
aF0.1148
aF0.0494
aF0.2797
aF0.0008
aF0.0
aF0.0595
aF0.0
aF0.0016
aF0.0
aF0.0
aF0.0
aF0.0
aF0.0
aF0.0
aF0.0
asS'ts_s_hbips_5_overall_den'
p734
(lp735
F0.0
aF0.02
aF0.0
ag23
(g27
S'\x00\x00\x00\x00\x00\x00\x00\x00'
p736
tp737
Rp738
aF1.0
aF0.1285
aF0.0791
aF0.3166
aF0.002
aF0.0
aF0.077
aF0.0005
aF0.0018
aF0.0
aF0.0
aF0.0
aF0.0
aF0.0
aF0.0
aF0.0
asS'tr_sub_1_numerator'
p739
(lp740
F0.0
aF0.02
aF0.0
ag23
(g27
S'\x00\x00\x00\x00\x00\x00\x00\x00'
p741
tp742
Rp743
aF1.0
aF0.112
aF0.0613
aF0.3196
aF0.0007
aF0.0
aF0.0575
aF0.0
aF0.0015
aF0.0
aF0.0
aF0.0
aF0.0
aF0.0
aF0.0
aF0.0
asS'ts_s_tob_2_numerator'
p744
(lp745
F0.0
aF0.02
aF0.0
ag23
(g27
S'\x00\x00\x00\x00\x00\x00\x00\x00'
p746
tp747
Rp748
aF1.0
aF0.1531
aF0.0748
aF0.2584
aF0.0074
aF0.0
aF0.0606
aF0.0034
aF0.0037
aF0.0
aF0.0
aF0.0
aF0.0
aF0.0
aF0.0
aF0.0
asS'ts_s_tob_2a_numerator'
p749
(lp750
F0.0
aF0.02
aF0.0
ag23
(g27
S'\x00\x00\x00\x00\x00\x00\x00\x00'
p751
tp752
Rp753
aF1.0
aF0.1385
aF0.066
aF0.2684
aF0.0037
aF0.0
aF0.0603
aF0.0019
aF0.0021
aF0.0
aF0.0
aF0.0
aF0.0
aF0.0
aF0.0
aF0.0
assI28
g0
(tRp754
S'tr_hbips_7_measure_description'
p755
(lp756
F0.5
aF1.0
aF0.0
ag23
(g27
S'\x00\x00\x00\x00\x00\x00\x00\x00'
p757
tp758
Rp759
aF0.0
aF0.0776
aF0.0
aF0.0
aF0.0
aF0.0
aF0.0
aF0.0
aF0.0
aF0.7371
aF0.6263
aF0.0
aF1.0
aF0.0
aF0.0
aF0.3189
asS'tr_ehr_use_response'
p760
(lp761
F0.5
aF1.0
aF0.0
ag23
(g27
S'\x00\x00\x00\x00\x00\x00\x00\x00'
p762
tp763
Rp764
aF0.0
aF0.0168
aF0.0276
aF0.2019
aF0.0
aF0.0
aF0.0
aF0.0
aF0.0
aF0.6744
aF0.5369
aF0.0
aF1.0
aF0.0
aF0.0
aF0.0341
asS'tr_hospital_name'
p765
(lp766
F0.5
aF1.0
aF0.0
ag23
(g27
S'\x00\x00\x00\x00\x00\x00\x00\x00'
p767
tp768
Rp769
aF0.0
aF0.0227
aF0.2526
aF0.4526
aF0.0
aF0.0
aF0.0
aF0.0
aF0.0
aF0.5501
aF0.4588
aF0.0001
aF0.9999
aF0.0015
aF0.0048
aF0.0619
asS'ts_s_ehr_use_measure_description'
p770
(lp771
F0.5
aF1.0
aF0.0
ag23
(g27
S'\x00\x00\x00\x00\x00\x00\x00\x00'
p772
tp773
Rp774
aF0.0
aF0.0336
aF0.0
aF0.0
aF0.0
aF0.0
aF0.0
aF0.0
aF0.0
aF0.9169
aF0.7235
aF0.0
aF1.0
aF0.0
aF0.0
aF0.0
asS'ts_s_hbips_7_measure_description'
p775
(lp776
F0.5
aF1.0
aF0.0
ag23
(g27
S'\x00\x00\x00\x00\x00\x00\x00\x00'
p777
tp778
Rp779
aF0.0
aF0.0776
aF0.0
aF0.0
aF0.0
aF0.0
aF0.0
aF0.0
aF0.0
aF0.7371
aF0.6263
aF0.0
aF1.0
aF0.0
aF0.0
aF0.3189
asS'ts_st_name'
p780
(lp781
F0.5
aF1.0
aF0.0
ag23
(g27
S'\x00\x00\x00\x00\x00\x00\x00\x00'
p782
tp783
Rp784
aF1.0
aF0.011
aF0.0488
aF0.4123
aF0.0
aF0.0
aF0.0
aF0.0
aF0.0
aF0.7871
aF0.6211
aF0.0087
aF0.993
aF0.0
aF0.0
aF0.0
asS'tr_address'
p785
(lp786
F0.5
aF1.0
aF0.0
ag23
(g27
S'\x00\x00\x00\x00\x00\x00\x00\x00'
p787
tp788
Rp789
aF0.0
aF0.0164
aF0.1083
aF0.4103
aF0.0
aF0.0
aF0.0
aF0.0
aF0.0
aF1.0
aF0.8086
aF0.2382
aF0.8094
aF0.0005
aF0.0048
aF0.0186
asS'tr_ehr_use_measure_description'
p790
(lp791
F0.5
aF1.0
aF0.0
ag23
(g27
S'\x00\x00\x00\x00\x00\x00\x00\x00'
p792
tp793
Rp794
aF0.0
aF0.0272
aF0.0
aF0.0
aF0.0
aF0.0
aF0.0
aF0.0
aF0.0
aF0.8091
aF0.6385
aF0.0
aF1.0
aF0.0
aF0.0
aF0.0
assI29
g0
(tRp795
S'tr_tob_2_2a_measure_desc'
p796
(lp797
F0.5
aF1.0
aF0.0
ag23
(g27
S'\x00\x00\x00\x00\x00\x00\x00\x00'
p798
tp799
Rp800
aF0.0
aF0.0384
aF0.0
aF0.0
aF0.0
aF0.0
aF0.0
aF0.0
aF0.0
aF0.6876
aF0.7235
aF0.0
aF1.0
aF0.0
aF1.0
aF0.0
asS'tr_fuh_measure_description'
p801
(lp802
F0.5
aF1.0
aF0.0
ag23
(g27
S'\x00\x00\x00\x00\x00\x00\x00\x00'
p803
tp804
Rp805
aF0.0
aF0.1072
aF0.0
aF0.0
aF0.0
aF0.0
aF0.0
aF0.0
aF0.0
aF0.78
aF0.842
aF0.056
aF0.9552
aF0.0
aF0.7163
aF0.6935
asS'ts_s_fuh_measure_description'
p806
(lp807
F0.5
aF1.0
aF0.0
ag23
(g27
S'\x00\x00\x00\x00\x00\x00\x00\x00'
p808
tp809
Rp810
aF0.0
aF0.1072
aF0.0
aF0.0
aF0.0
aF0.0
aF0.0
aF0.0
aF0.0
aF0.78
aF0.842
aF0.056
aF0.9552
aF0.0
aF0.7163
aF0.6935
assI30
g0
(tRp811
S'ts_state'
p812
(lp813
F0.5
aF0.004
aF1.0
ag23
(g27
S'\x00\x00\x00\x00\x00\x00\x00\x00'
p814
tp815
Rp816
aF1.0
aF0.4
aF0.0
aF0.0
aF0.0
aF0.0
aF0.0
aF0.0
aF0.0
aF0.0
aF0.0
aF0.0
aF1.0
aF0.0
aF0.0
aF0.0
asS'tr_provider_number'
p817
(lp818
F0.0
aF1.0
aF1.0
ag23
(g27
S'\x00\x00\x00\x00\x00\x00\x00\x00'
p819
tp820
Rp821
aF1.0
aF0.0047
aF0.0005
aF0.0952
aF0.5017
aF0.0017
aF0.0344
aF0.3652
aF0.1886
aF0.0
aF0.0
aF0.0
aF0.0
aF0.0
aF0.0
aF0.0
assI31
g0
(tRp822
S'tr_hbips_2_overall_den'
p823
(lp824
F0.0
aF0.02
aF0.0
ag23
(g27
S'\x00\x00\x00\x00\x00\x00\x00\x00'
p825
tp826
Rp827
aF1.0
aF0.1734
aF0.0987
aF0.262
aF0.0316
aF0.0001
aF0.1182
aF0.0
aF0.1575
aF0.0
aF0.0
aF0.0
aF0.0
aF0.0
aF0.0
aF0.0
asS'tr_hbips_3_overall_den'
p828
(lp829
F0.0
aF0.02
aF0.0
ag23
(g27
S'\x00\x00\x00\x00\x00\x00\x00\x00'
p830
tp831
Rp832
aF1.0
aF0.173
aF0.1027
aF0.268
aF0.0309
aF0.0001
aF0.1164
aF0.0
aF0.1575
aF0.0
aF0.0
aF0.0
aF0.0
aF0.0
aF0.0
aF0.0
assI32
g0
(tRp833
S'ts_s_hcp_denominator'
p834
(lp835
F0.0
aF0.02
aF0.0
ag23
(g27
S'\x00\x00\x00\x00\x00\x00\x00\x00'
p836
tp837
Rp838
aF1.0
aF0.2223
aF0.0517
aF0.148
aF0.3538
aF0.088
aF0.0628
aF0.2371
aF0.2616
aF0.0
aF0.0
aF0.0
aF0.0
aF0.0
aF0.0
aF0.0
asS'ts_s_hcp_numerator'
p839
(lp840
F0.0
aF0.02
aF0.0
ag23
(g27
S'\x00\x00\x00\x00\x00\x00\x00\x00'
p841
tp842
Rp843
aF1.0
aF0.22
aF0.0523
aF0.1505
aF0.3024
aF0.061
aF0.0612
aF0.1547
aF0.2147
aF0.0
aF0.0
aF0.0
aF0.0
aF0.0
aF0.0
aF0.0
assI33
g0
(tRp844
S'ts_s_hbips_2_overall_den'
p845
(lp846
F0.0
aF0.02
aF0.0
ag23
(g27
S'\x00\x00\x00\x00\x00\x00\x00\x00'
p847
tp848
Rp849
aF1.0
aF0.2385
aF0.0626
aF0.1517
aF1.0
aF1.0
aF0.0749
aF1.0
aF1.0
aF0.0
aF0.0
aF0.0
aF0.0
aF0.0
aF0.0
aF0.0
asS'ts_s_hbips_3_overall_den'
p850
(lp851
F0.0
aF0.02
aF0.0
ag23
(g27
S'\x00\x00\x00\x00\x00\x00\x00\x00'
p852
tp853
Rp854
aF1.0
aF0.2385
aF0.0626
aF0.1517
aF0.9775
aF0.9539
aF0.0749
aF1.0
aF0.9887
aF0.0
aF0.0
aF0.0
aF0.0
aF0.0
aF0.0
aF0.0
ass.