ccollections
defaultdict
p0
(cdill.dill
_create_function
p1
(cdill.dill
_load_type
p2
(S'CodeType'
p3
tp4
Rp5
(I0
I0
I1
I67
S't\x00\x00\x83\x00\x00S'
p6
(Ntp7
(S'defaultdict'
p8
tp9
(tS'Run_me.py'
p10
S'<lambda>'
p11
I209
S''
p12
(t(ttp13
Rp14
c__main__
__dict__
g11
NN(dp15
tp16
Rp17
tp18
Rp19
I1
g0
(tRp20
S'tr_hbips_6_measure_description'
p21
(lp22
F0.5
aF1.0
aF0.0
acnumpy.core.multiarray
scalar
p23
(cnumpy
dtype
p24
(S'f8'
p25
I0
I1
tp26
Rp27
(I3
S'<'
p28
NNNI-1
I-1
I0
tp29
bS'\x00\x00\x00\x00\x00\x00\x00\x00'
p30
tp31
Rp32
aF0.0
aF0.0344
aF0.0
aF0.0
aF0.0
aF0.0
aF0.0
aF0.0
aF0.0
aF0.5116
aF0.5048
aF0.0
aF1.0
aF0.0
aF0.0
aF0.7214
asS'ts_s_hbips_6_measure_description'
p33
(lp34
F0.5
aF1.0
aF0.0
ag23
(g27
S'\x00\x00\x00\x00\x00\x00\x00\x00'
p35
tp36
Rp37
aF0.0
aF0.0344
aF0.0
aF0.0
aF0.0
aF0.0
aF0.0
aF0.0
aF0.0
aF0.5116
aF0.5048
aF0.0
aF1.0
aF0.0
aF0.0
aF0.7214
asS'tr_hbips_2_measure_description'
p38
(lp39
F0.5
aF1.0
aF0.0
ag23
(g27
S'\x00\x00\x00\x00\x00\x00\x00\x00'
p40
tp41
Rp42
aF0.0
aF0.0248
aF0.0
aF0.0
aF0.0
aF0.0
aF0.0
aF0.0
aF0.0
aF0.5325
aF0.5599
aF0.0
aF1.0
aF0.0
aF0.0
aF1.0
asS'ts_s_hbips_2_measure_description'
p43
(lp44
F0.5
aF1.0
aF0.0
ag23
(g27
S'\x00\x00\x00\x00\x00\x00\x00\x00'
p45
tp46
Rp47
aF0.0
aF0.0248
aF0.0
aF0.0
aF0.0
aF0.0
aF0.0
aF0.0
aF0.0
aF0.5325
aF0.5599
aF0.0
aF1.0
aF0.0
aF0.0
aF1.0
assI2
g0
(tRp48
S'tr_city'
p49
(lp50
F0.5
aF1.0
aF0.0
ag23
(g27
S'\x00\x00\x00\x00\x00\x00\x00\x00'
p51
tp52
Rp53
aF0.0
aF0.007
aF0.0241
aF0.452
aF0.0
aF0.0
aF0.0
aF0.0
aF0.0
aF0.1535
aF0.122
aF0.0
aF1.0
aF0.0
aF0.0
aF0.0031
asS'tr_country_name'
p54
(lp55
F0.5
aF1.0
aF0.0
ag23
(g27
S'\x00\x00\x00\x00\x00\x00\x00\x00'
p56
tp57
Rp58
aF0.0
aF0.0062
aF0.0263
aF0.5384
aF0.0
aF0.0
aF0.0
aF0.0
aF0.0
aF0.121
aF0.0977
aF0.0
aF1.0
aF0.0
aF0.0
aF0.0155
asS'tr_hie_response'
p59
(lp60
F0.5
aF1.0
aF0.0
ag23
(g27
S'\x00\x00\x00\x00\x00\x00\x00\x00'
p61
tp62
Rp63
aF0.0
aF0.002
aF0.0053
aF0.7487
aF0.0
aF0.0
aF0.0
aF0.0
aF0.0
aF0.0242
aF0.0191
aF0.0
aF1.0
aF0.0
aF0.0
aF0.0
asS'tr_peoc_assessed_response'
p64
(lp65
F0.5
aF1.0
aF0.0
ag23
(g27
S'\x00\x00\x00\x00\x00\x00\x00\x00'
p66
tp67
Rp68
aF0.0
aF0.0023
aF0.0047
aF0.6136
aF0.0
aF0.0
aF0.0
aF0.0
aF0.0
aF0.0209
aF0.0165
aF0.0
aF1.0
aF0.0
aF0.0
aF0.0
assI3
g0
(tRp69
S'ts_s_hbips_2_overall_rate_per_1000'
p70
(lp71
F0.0
aF1.0
aF0.0
ag23
(g27
S'\x00\x00\x00\x00\x00\x00\x00\x00'
p72
tp73
Rp74
aF0.0
aF0.0008
aF0.0
aF0.0
aF0.0
aF0.0
aF0.0962
aF0.0
aF0.0
aF0.0
aF0.0
aF0.0
aF0.0
aF0.0
aF0.0
aF0.0
asS'ts_s_hie_no_percent'
p75
(lp76
F0.0
aF1.0
aF0.0
ag23
(g27
S'\x00\x00\x00\x00\x00\x00\x00\x00'
p77
tp78
Rp79
aF0.0
aF0.0016
aF0.0002
aF0.1452
aF0.0001
aF0.0
aF0.0135
aF0.0011
aF0.0
aF0.0
aF0.0
aF0.0
aF0.0
aF0.0
aF0.0
aF0.0
asS'ts_s_hie_yes_percent'
p80
(lp81
F0.0
aF1.0
aF0.0
ag23
(g27
S'\x00\x00\x00\x00\x00\x00\x00\x00'
p82
tp83
Rp84
aF0.0
aF0.0016
aF0.0002
aF0.1509
aF0.0001
aF0.0
aF0.0244
aF0.0
aF0.0
aF0.0
aF0.0
aF0.0
aF0.0
aF0.0
aF0.0
aF0.0
asS'ts_s_hbips_3_overall_rate_per_1000'
p85
(lp86
F0.0
aF1.0
aF0.0
ag23
(g27
S'\x00\x00\x00\x00\x00\x00\x00\x00'
p87
tp88
Rp89
aF0.0
aF0.0008
aF0.0
aF0.0
aF0.0
aF0.0
aF0.1536
aF0.0
aF0.0
aF0.0
aF0.0
aF0.0
aF0.0
aF0.0
aF0.0
aF0.0
assI4
g0
(tRp90
S'ts_s_hbips_5_measure_description'
p91
(lp92
F0.5
aF1.0
aF0.0
ag23
(g27
S'\x00\x00\x00\x00\x00\x00\x00\x00'
p93
tp94
Rp95
aF0.0
aF0.0704
aF0.0
aF0.0
aF0.0
aF0.0
aF0.0
aF0.0
aF0.0
aF0.5
aF0.3945
aF0.0
aF1.0
aF0.0
aF0.0
aF0.0
asS'tr_hbips_5_measure_description'
p96
(lp97
F0.5
aF1.0
aF0.0
ag23
(g27
S'\x00\x00\x00\x00\x00\x00\x00\x00'
p98
tp99
Rp100
aF0.0
aF0.0704
aF0.0
aF0.0
aF0.0
aF0.0
aF0.0
aF0.0
aF0.0
aF0.5
aF0.3945
aF0.0
aF1.0
aF0.0
aF0.0
aF0.0
asS'ts_s_hbips_3_measure_description'
p101
(lp102
F0.5
aF1.0
aF0.0
ag23
(g27
S'\x00\x00\x00\x00\x00\x00\x00\x00'
p103
tp104
Rp105
aF0.0
aF0.0144
aF0.0
aF0.0
aF0.0
aF0.0
aF0.0
aF0.0
aF0.0
aF0.6111
aF0.4822
aF0.0
aF1.0
aF0.0
aF0.0
aF0.0
asS'tr_hbips_3_measure_description'
p106
(lp107
F0.5
aF1.0
aF0.0
ag23
(g27
S'\x00\x00\x00\x00\x00\x00\x00\x00'
p108
tp109
Rp110
aF0.0
aF0.0144
aF0.0
aF0.0
aF0.0
aF0.0
aF0.0
aF0.0
aF0.0
aF0.6111
aF0.4822
aF0.0
aF1.0
aF0.0
aF0.0
aF0.0
asS'tr_sub_1_measure_description'
p111
(lp112
F0.5
aF1.0
aF0.0
ag23
(g27
S'\x00\x00\x00\x00\x00\x00\x00\x00'
p113
tp114
Rp115
aF0.0
aF0.0168
aF0.0
aF0.0
aF0.0
aF0.0
aF0.0
aF0.0
aF0.0
aF0.5237
aF0.4132
aF0.0
aF1.0
aF0.0
aF0.0
aF0.0
asS'ts_s_hie_measure_description'
p116
(lp117
F0.5
aF1.0
aF0.0
ag23
(g27
S'\x00\x00\x00\x00\x00\x00\x00\x00'
p118
tp119
Rp120
aF0.0
aF0.0416
aF0.0
aF0.0
aF0.0
aF0.0
aF0.0
aF0.0
aF0.0
aF0.5292
aF0.4175
aF0.0
aF1.0
aF0.0
aF0.0
aF0.0
asS'tr_peoc_measure_description'
p121
(lp122
F0.5
aF1.0
aF0.0
ag23
(g27
S'\x00\x00\x00\x00\x00\x00\x00\x00'
p123
tp124
Rp125
aF0.0
aF0.032
aF0.0
aF0.0
aF0.0
aF0.0
aF0.0
aF0.0
aF0.0
aF0.6876
aF0.5425
aF0.0
aF1.0
aF0.0
aF0.0
aF0.0
asS'ts_s_imm_2_measure_description'
p126
(lp127
F0.5
aF1.0
aF0.0
ag23
(g27
S'\x00\x00\x00\x00\x00\x00\x00\x00'
p128
tp129
Rp130
aF0.0
aF0.0176
aF0.0
aF0.0
aF0.0
aF0.0
aF0.0
aF0.0
aF0.0
aF0.2503
aF0.1975
aF0.0
aF1.0
aF0.0
aF0.0
aF0.0
asS'ts_s_sub_1_measure_description'
p131
(lp132
F0.5
aF1.0
aF0.0
ag23
(g27
S'\x00\x00\x00\x00\x00\x00\x00\x00'
p133
tp134
Rp135
aF0.0
aF0.0168
aF0.0
aF0.0
aF0.0
aF0.0
aF0.0
aF0.0
aF0.0
aF0.5237
aF0.4132
aF0.0
aF1.0
aF0.0
aF0.0
aF0.0
asS'ts_s_peoc_measure_description'
p136
(lp137
F0.5
aF1.0
aF0.0
ag23
(g27
S'\x00\x00\x00\x00\x00\x00\x00\x00'
p138
tp139
Rp140
aF0.0
aF0.032
aF0.0
aF0.0
aF0.0
aF0.0
aF0.0
aF0.0
aF0.0
aF0.6876
aF0.5425
aF0.0
aF1.0
aF0.0
aF0.0
aF0.0
asS'tr_hospital_name'
p141
(lp142
F0.5
aF1.0
aF0.0
ag23
(g27
S'\x00\x00\x00\x00\x00\x00\x00\x00'
p143
tp144
Rp145
aF0.0
aF0.0227
aF0.2526
aF0.4526
aF0.0
aF0.0
aF0.0
aF0.0
aF0.0
aF0.5501
aF0.4588
aF0.0001
aF0.9999
aF0.0015
aF0.0048
aF0.0619
asS'tr_hie_measure_description'
p146
(lp147
F0.5
aF1.0
aF0.0
ag23
(g27
S'\x00\x00\x00\x00\x00\x00\x00\x00'
p148
tp149
Rp150
aF0.0
aF0.0416
aF0.0
aF0.0
aF0.0
aF0.0
aF0.0
aF0.0
aF0.0
aF0.5292
aF0.4175
aF0.0
aF1.0
aF0.0
aF0.0
aF0.0
asS'ts_s_hcp_measure_description'
p151
(lp152
F0.5
aF1.0
aF0.0
ag23
(g27
S'\x00\x00\x00\x00\x00\x00\x00\x00'
p153
tp154
Rp155
aF0.0
aF0.0336
aF0.0
aF0.0
aF0.0
aF0.0
aF0.0
aF0.0
aF0.0
aF0.3927
aF0.3099
aF0.0
aF1.0
aF0.0
aF0.0
aF0.0
asS'ts_s_tob_1_measure_description'
p156
(lp157
F0.5
aF1.0
aF0.0
ag23
(g27
S'\x00\x00\x00\x00\x00\x00\x00\x00'
p158
tp159
Rp160
aF0.0
aF0.0168
aF0.0
aF0.0
aF0.0
aF0.0
aF0.0
aF0.0
aF0.0
aF0.5237
aF0.4132
aF0.0
aF1.0
aF0.0
aF0.0
aF0.0
asS'tr_imm_2_measure_description'
p161
(lp162
F0.5
aF1.0
aF0.0
ag23
(g27
S'\x00\x00\x00\x00\x00\x00\x00\x00'
p163
tp164
Rp165
aF0.0
aF0.0176
aF0.0
aF0.0
aF0.0
aF0.0
aF0.0
aF0.0
aF0.0
aF0.2503
aF0.1975
aF0.0
aF1.0
aF0.0
aF0.0
aF0.0
asS'tr_hcp_measure_description'
p166
(lp167
F0.5
aF1.0
aF0.0
ag23
(g27
S'\x00\x00\x00\x00\x00\x00\x00\x00'
p168
tp169
Rp170
aF0.0
aF0.0336
aF0.0
aF0.0
aF0.0
aF0.0
aF0.0
aF0.0
aF0.0
aF0.3927
aF0.3099
aF0.0
aF1.0
aF0.0
aF0.0
aF0.0
asS'tr_tob_1_measure_description'
p171
(lp172
F0.5
aF1.0
aF0.0
ag23
(g27
S'\x00\x00\x00\x00\x00\x00\x00\x00'
p173
tp174
Rp175
aF0.0
aF0.0168
aF0.0
aF0.0
aF0.0
aF0.0
aF0.0
aF0.0
aF0.0
aF0.5237
aF0.4132
aF0.0
aF1.0
aF0.0
aF0.0
aF0.0
assI5
g0
(tRp176
S'tr_hbips_7_measure_description'
p177
(lp178
F0.5
aF1.0
aF0.0
ag23
(g27
S'\x00\x00\x00\x00\x00\x00\x00\x00'
p179
tp180
Rp181
aF0.0
aF0.0776
aF0.0
aF0.0
aF0.0
aF0.0
aF0.0
aF0.0
aF0.0
aF0.7371
aF0.6263
aF0.0
aF1.0
aF0.0
aF0.0
aF0.3189
asS'tr_ehr_use_response'
p182
(lp183
F0.5
aF1.0
aF0.0
ag23
(g27
S'\x00\x00\x00\x00\x00\x00\x00\x00'
p184
tp185
Rp186
aF0.0
aF0.0168
aF0.0276
aF0.2019
aF0.0
aF0.0
aF0.0
aF0.0
aF0.0
aF0.6744
aF0.5369
aF0.0
aF1.0
aF0.0
aF0.0
aF0.0341
asS'ts_s_ehr_use_measure_description'
p187
(lp188
F0.5
aF1.0
aF0.0
ag23
(g27
S'\x00\x00\x00\x00\x00\x00\x00\x00'
p189
tp190
Rp191
aF0.0
aF0.0336
aF0.0
aF0.0
aF0.0
aF0.0
aF0.0
aF0.0
aF0.0
aF0.9169
aF0.7235
aF0.0
aF1.0
aF0.0
aF0.0
aF0.0
asS'ts_s_hbips_7_measure_description'
p192
(lp193
F0.5
aF1.0
aF0.0
ag23
(g27
S'\x00\x00\x00\x00\x00\x00\x00\x00'
p194
tp195
Rp196
aF0.0
aF0.0776
aF0.0
aF0.0
aF0.0
aF0.0
aF0.0
aF0.0
aF0.0
aF0.7371
aF0.6263
aF0.0
aF1.0
aF0.0
aF0.0
aF0.3189
asS'tr_address'
p197
(lp198
F0.5
aF1.0
aF0.0
ag23
(g27
S'\x00\x00\x00\x00\x00\x00\x00\x00'
p199
tp200
Rp201
aF0.0
aF0.0164
aF0.1083
aF0.4103
aF0.0
aF0.0
aF0.0
aF0.0
aF0.0
aF1.0
aF0.8086
aF0.2382
aF0.8094
aF0.0005
aF0.0048
aF0.0186
asS'tr_ehr_use_measure_description'
p202
(lp203
F0.5
aF1.0
aF0.0
ag23
(g27
S'\x00\x00\x00\x00\x00\x00\x00\x00'
p204
tp205
Rp206
aF0.0
aF0.0272
aF0.0
aF0.0
aF0.0
aF0.0
aF0.0
aF0.0
aF0.0
aF0.8091
aF0.6385
aF0.0
aF1.0
aF0.0
aF0.0
aF0.0
asS'ts_tob_2_2a_measure_desc'
p207
(lp208
F0.5
aF1.0
aF0.0
ag23
(g27
S'\x00\x00\x00\x00\x00\x00\x00\x00'
p209
tp210
Rp211
aF0.0
aF0.0339
aF0.0276
aF0.1003
aF0.0
aF0.0
aF0.0
aF0.0
aF0.0
aF0.6744
aF0.5716
aF0.0
aF1.0
aF0.0
aF0.2163
aF0.0
assI6
g0
(tRp212
S'tr_state'
p213
(lp214
F0.5
aF0.004
aF0.0
ag23
(g27
S'\x00\x00\x00\x00\x00\x00\x00\x00'
p215
tp216
Rp217
aF0.0
aF0.4
aF0.0
aF0.0
aF0.0
aF0.0
aF0.0
aF0.0
aF0.0
aF0.0
aF0.0
aF0.0
aF1.0
aF0.0
aF0.0
aF0.0
assI10
g0
(tRp218
S'tr_hbips_3_overall_rate_per_1000'
p219
(lp220
F0.5
aF1.0
aF0.0
ag23
(g27
S'\x00\x00\x00\x00\x00\x00\x00\x00'
p221
tp222
Rp223
aF0.0
aF0.0021
aF0.0078
aF0.8545
aF0.0
aF0.0
aF0.0
aF0.0
aF0.0
aF0.0
aF0.9197
aF0.9851
aF0.2119
aF0.0
aF0.0
aF0.0
asS'tr_hbips_2_overall_rate_per_1000'
p224
(lp225
F0.5
aF1.0
aF0.0
ag23
(g27
S'\x00\x00\x00\x00\x00\x00\x00\x00'
p226
tp227
Rp228
aF0.0
aF0.0025
aF0.0065
aF0.6624
aF0.0
aF0.0
aF0.0
aF0.0
aF0.0
aF0.0
aF1.0
aF0.962
aF0.2304
aF0.0
aF0.0
aF0.0
assI11
g0
(tRp229
S'ts_st_name'
p230
(lp231
F0.5
aF1.0
aF0.0
ag23
(g27
S'\x00\x00\x00\x00\x00\x00\x00\x00'
p232
tp233
Rp234
aF1.0
aF0.011
aF0.0488
aF0.4123
aF0.0
aF0.0
aF0.0
aF0.0
aF0.0
aF0.7871
aF0.6211
aF0.0087
aF0.993
aF0.0
aF0.0
aF0.0
assI12
g0
(tRp235
S'tr_tob_2_2a_measure_desc'
p236
(lp237
F0.5
aF1.0
aF0.0
ag23
(g27
S'\x00\x00\x00\x00\x00\x00\x00\x00'
p238
tp239
Rp240
aF0.0
aF0.0384
aF0.0
aF0.0
aF0.0
aF0.0
aF0.0
aF0.0
aF0.0
aF0.6876
aF0.7235
aF0.0
aF1.0
aF0.0
aF1.0
aF0.0
asS'tr_fuh_measure_description'
p241
(lp242
F0.5
aF1.0
aF0.0
ag23
(g27
S'\x00\x00\x00\x00\x00\x00\x00\x00'
p243
tp244
Rp245
aF0.0
aF0.1072
aF0.0
aF0.0
aF0.0
aF0.0
aF0.0
aF0.0
aF0.0
aF0.78
aF0.842
aF0.056
aF0.9552
aF0.0
aF0.7163
aF0.6935
asS'ts_s_fuh_measure_description'
p246
(lp247
F0.5
aF1.0
aF0.0
ag23
(g27
S'\x00\x00\x00\x00\x00\x00\x00\x00'
p248
tp249
Rp250
aF0.0
aF0.1072
aF0.0
aF0.0
aF0.0
aF0.0
aF0.0
aF0.0
aF0.0
aF0.78
aF0.842
aF0.056
aF0.9552
aF0.0
aF0.7163
aF0.6935
assI14
g0
(tRp251
S'ts_s_hie_yes_count'
p252
(lp253
F0.25
aF0.008
aF0.0
ag23
(g27
S'\x00\x00\x00\x00\x00\x00\x00\x00'
p254
tp255
Rp256
aF0.0
aF0.1442
aF0.112
aF0.5304
aF0.0
aF0.0
aF0.0568
aF0.0
aF0.0
aF0.0
aF0.0
aF0.0
aF0.0
aF0.0
aF0.0
aF0.0
asS'ts_s_ehr_certified_percentage'
p257
(lp258
F0.0
aF0.01
aF0.0
ag23
(g27
S'\x00\x00\x00\x00\x00\x00\x00\x00'
p259
tp260
Rp261
aF0.0
aF0.1569
aF0.0134
aF0.1509
aF0.0001
aF0.0
aF0.0254
aF0.0
aF0.0
aF0.0
aF0.0
aF0.0
aF0.0
aF0.0
aF0.0
aF0.0
asS'ts_s_peoc_yes_count'
p262
(lp263
F0.25
aF0.008
aF0.0
ag23
(g27
S'\x00\x00\x00\x00\x00\x00\x00\x00'
p264
tp265
Rp266
aF0.0
aF0.1692
aF0.0967
aF0.42
aF0.0
aF0.0
aF0.0571
aF0.0001
aF0.0
aF0.0
aF0.0
aF0.0
aF0.0
aF0.0
aF0.0
aF0.0
asS'ts_s_hie_no_count'
p267
(lp268
F0.25
aF0.008
aF0.0
ag23
(g27
S'\x00\x00\x00\x00\x00\x00\x00\x00'
p269
tp270
Rp271
aF0.0
aF0.1615
aF0.1074
aF0.4639
aF0.0
aF0.0
aF0.0565
aF0.0001
aF0.0
aF0.0
aF0.0
aF0.0
aF0.0
aF0.0
aF0.0
aF0.0
asS'ts_s_peoc_no_count'
p272
(lp273
F0.25
aF0.008
aF0.0
ag23
(g27
S'\x00\x00\x00\x00\x00\x00\x00\x00'
p274
tp275
Rp276
aF0.0
aF0.1327
aF0.0998
aF0.5444
aF0.0
aF0.0
aF0.0585
aF0.0
aF0.0
aF0.0
aF0.0
aF0.0
aF0.0
aF0.0
aF0.0
aF0.0
asS'ts_s_peoc_yes_percentage'
p277
(lp278
F0.0
aF0.01
aF0.0
ag23
(g27
S'\x00\x00\x00\x00\x00\x00\x00\x00'
p279
tp280
Rp281
aF0.0
aF0.1692
aF0.037
aF0.2326
aF0.0001
aF0.0
aF0.012
aF0.0018
aF0.0
aF0.0
aF0.0
aF0.0
aF0.0
aF0.0
aF0.0
aF0.0
asS'tr_hcp_percentage'
p282
(lp283
F0.0
aF0.01
aF0.0
ag23
(g27
S'\x00\x00\x00\x00\x00\x00\x00\x00'
p284
tp285
Rp286
aF0.0
aF0.164
aF0.0613
aF0.3089
aF0.0001
aF0.0
aF0.0221
aF0.0
aF0.0
aF0.0
aF0.0
aF0.0
aF0.0
aF0.0
aF0.0
aF0.0
asS'ts_s_ehr_certified_count'
p287
(lp288
F0.25
aF0.008
aF0.0
ag23
(g27
S'\x00\x00\x00\x00\x00\x00\x00\x00'
p289
tp290
Rp291
aF0.0
aF0.15
aF0.1134
aF0.5133
aF0.0
aF0.0
aF0.0531
aF0.0
aF0.0
aF0.0
aF0.0
aF0.0
aF0.0
aF0.0
aF0.0
aF0.0
asS'ts_s_ehr_paper_count'
p292
(lp293
F0.25
aF0.008
aF0.0
ag23
(g27
S'\x00\x00\x00\x00\x00\x00\x00\x00'
p294
tp295
Rp296
aF0.0
aF0.1558
aF0.112
aF0.491
aF0.0
aF0.0
aF0.0597
aF0.0
aF0.0
aF0.0
aF0.0
aF0.0
aF0.0
aF0.0
aF0.0
aF0.0
asS'ts_s_peoc_no_percentage'
p297
(lp298
F0.0
aF0.01
aF0.0
ag23
(g27
S'\x00\x00\x00\x00\x00\x00\x00\x00'
p299
tp300
Rp301
aF0.0
aF0.1462
aF0.0519
aF0.319
aF0.0
aF0.0
aF0.0378
aF0.0
aF0.0
aF0.0
aF0.0
aF0.0
aF0.0
aF0.0
aF0.0
aF0.0
asS'ts_s_ehr_non_certified_percentage'
p302
(lp303
F0.0
aF0.01
aF0.0
ag23
(g27
S'\x00\x00\x00\x00\x00\x00\x00\x00'
p304
tp305
Rp306
aF0.0
aF0.0877
aF0.0316
aF0.4141
aF0.0
aF0.0
aF0.0995
aF0.0
aF0.0
aF0.0
aF0.0
aF0.0
aF0.0
aF0.0
aF0.0
aF0.0
assI16
g0
(tRp307
S'ts_s_fuh_measure_end_date'
p308
(lp309
F1.0
aF0.008
aF0.0
ag23
(g27
S'\x00\x00\x00\x00\x00\x00\x00\x00'
p310
tp311
Rp312
aF0.0
aF1.0
aF0.0
aF0.0
aF0.0
aF0.0
aF0.0
aF0.0
aF0.0
aF0.0
aF0.8681
aF1.0
aF0.2
aF1.0
aF0.0
aF0.0
asS'ts_s_flu_season_start_date'
p313
(lp314
F1.0
aF0.008
aF0.0
ag23
(g27
S'\x00\x00\x00\x00\x00\x00\x00\x00'
p315
tp316
Rp317
aF0.0
aF1.0
aF0.0
aF0.0
aF0.0
aF0.0
aF0.0
aF0.0
aF0.0
aF0.0
aF0.8681
aF1.0
aF0.2
aF1.0
aF0.0
aF0.0
asS'ts_s_fuh_measure_start_date'
p318
(lp319
F1.0
aF0.008
aF0.0
ag23
(g27
S'\x00\x00\x00\x00\x00\x00\x00\x00'
p320
tp321
Rp322
aF0.0
aF1.0
aF0.0
aF0.0
aF0.0
aF0.0
aF0.0
aF0.0
aF0.0
aF0.0
aF0.8681
aF1.0
aF0.2
aF1.0
aF0.0
aF0.0
asS'tr_fuh_measure_start_date'
p323
(lp324
F1.0
aF0.008
aF0.0
ag23
(g27
S'\x00\x00\x00\x00\x00\x00\x00\x00'
p325
tp326
Rp327
aF0.0
aF1.0
aF0.0
aF0.0
aF0.0
aF0.0
aF0.0
aF0.0
aF0.0
aF0.0
aF0.8681
aF1.0
aF0.2
aF1.0
aF0.0
aF0.0
asS'tr_end_date'
p328
(lp329
F1.0
aF0.008
aF0.0
ag23
(g27
S'\x00\x00\x00\x00\x00\x00\x00\x00'
p330
tp331
Rp332
aF0.0
aF1.0
aF0.0
aF0.0
aF0.0
aF0.0
aF0.0
aF0.0
aF0.0
aF0.0
aF0.8681
aF1.0
aF0.2
aF1.0
aF0.0
aF0.0
asS'tr_flu_season_start_date'
p333
(lp334
F1.0
aF0.008
aF0.0
ag23
(g27
S'\x00\x00\x00\x00\x00\x00\x00\x00'
p335
tp336
Rp337
aF0.0
aF1.0
aF0.0
aF0.0
aF0.0
aF0.0
aF0.0
aF0.0
aF0.0
aF0.0
aF0.8681
aF1.0
aF0.2
aF1.0
aF0.0
aF0.0
asS'ts_start_date'
p338
(lp339
F1.0
aF0.008
aF0.0
ag23
(g27
S'\x00\x00\x00\x00\x00\x00\x00\x00'
p340
tp341
Rp342
aF0.0
aF1.0
aF0.0
aF0.0
aF0.0
aF0.0
aF0.0
aF0.0
aF0.0
aF0.0
aF0.8681
aF1.0
aF0.2
aF1.0
aF0.0
aF0.0
asS'tr_fuh_measure_end_date'
p343
(lp344
F1.0
aF0.008
aF0.0
ag23
(g27
S'\x00\x00\x00\x00\x00\x00\x00\x00'
p345
tp346
Rp347
aF0.0
aF1.0
aF0.0
aF0.0
aF0.0
aF0.0
aF0.0
aF0.0
aF0.0
aF0.0
aF0.8681
aF1.0
aF0.2
aF1.0
aF0.0
aF0.0
asS'tr_flu_season_end_date'
p348
(lp349
F1.0
aF0.008
aF0.0
ag23
(g27
S'\x00\x00\x00\x00\x00\x00\x00\x00'
p350
tp351
Rp352
aF0.0
aF1.0
aF0.0
aF0.0
aF0.0
aF0.0
aF0.0
aF0.0
aF0.0
aF0.0
aF0.8681
aF1.0
aF0.2
aF1.0
aF0.0
aF0.0
asS'ts_s_flu_season_end_date'
p353
(lp354
F1.0
aF0.008
aF0.0
ag23
(g27
S'\x00\x00\x00\x00\x00\x00\x00\x00'
p355
tp356
Rp357
aF0.0
aF1.0
aF0.0
aF0.0
aF0.0
aF0.0
aF0.0
aF0.0
aF0.0
aF0.0
aF0.8681
aF1.0
aF0.2
aF1.0
aF0.0
aF0.0
asS'ts_end_date'
p358
(lp359
F1.0
aF0.008
aF0.0
ag23
(g27
S'\x00\x00\x00\x00\x00\x00\x00\x00'
p360
tp361
Rp362
aF0.0
aF1.0
aF0.0
aF0.0
aF0.0
aF0.0
aF0.0
aF0.0
aF0.0
aF0.0
aF0.8681
aF1.0
aF0.2
aF1.0
aF0.0
aF0.0
asS'tr_start_date'
p363
(lp364
F1.0
aF0.008
aF0.0
ag23
(g27
S'\x00\x00\x00\x00\x00\x00\x00\x00'
p365
tp366
Rp367
aF0.0
aF1.0
aF0.0
aF0.0
aF0.0
aF0.0
aF0.0
aF0.0
aF0.0
aF0.0
aF0.8681
aF1.0
aF0.2
aF1.0
aF0.0
aF0.0
assI19
g0
(tRp368
S'ts_state'
p369
(lp370
F0.5
aF0.004
aF1.0
ag23
(g27
S'\x00\x00\x00\x00\x00\x00\x00\x00'
p371
tp372
Rp373
aF1.0
aF0.4
aF0.0
aF0.0
aF0.0
aF0.0
aF0.0
aF0.0
aF0.0
aF0.0
aF0.0
aF0.0
aF1.0
aF0.0
aF0.0
aF0.0
assI21
g0
(tRp374
S'tr_tob_2a_footnote'
p375
(lp376
F0.25
aF0.008
aF0.0
ag23
(g27
S'\x00\x00\x00\x00\x00\x00\x00\x00'
p377
tp378
Rp379
aF0.0
aF0.3182
aF0.8095
aF0.6464
aF0.0
aF0.0
aF0.1634
aF0.0
aF0.0
aF0.0
aF0.0
aF0.0
aF0.0
aF0.0
aF0.0
aF0.0
asS'tr_fuh_7_footnote'
p380
(lp381
F0.25
aF0.008
aF0.0
ag23
(g27
S'\x00\x00\x00\x00\x00\x00\x00\x00'
p382
tp383
Rp384
aF0.0
aF0.3088
aF0.8641
aF0.6884
aF0.0
aF0.0
aF0.1365
aF0.0
aF0.0
aF0.0
aF0.0
aF0.0
aF0.0
aF0.0
aF0.0
aF0.0
asS'tr_hbips_5_overall_footnote'
p385
(lp386
F0.25
aF0.008
aF0.0
ag23
(g27
S'\x00\x00\x00\x00\x00\x00\x00\x00'
p387
tp388
Rp389
aF0.0
aF0.2286
aF1.0
aF1.0
aF0.0
aF0.0
aF0.1019
aF0.0
aF0.0
aF0.0
aF0.0
aF0.0
aF0.0
aF0.0
aF0.0
aF0.0
assI22
g0
(tRp390
S'tr_fuh_30_footnote'
p391
(lp392
F0.25
aF0.008
aF0.0
ag23
(g27
S'\x00\x00\x00\x00\x00\x00\x00\x00'
p393
tp394
Rp395
aF0.0
aF0.346
aF0.6028
aF0.5132
aF0.0
aF0.0
aF0.1789
aF0.0
aF0.0
aF0.0
aF0.0
aF0.0
aF0.0
aF0.0
aF0.0
aF0.0
asS'tr_tob_2_footnote'
p396
(lp397
F0.25
aF0.008
aF0.0
ag23
(g27
S'\x00\x00\x00\x00\x00\x00\x00\x00'
p398
tp399
Rp400
aF0.0
aF0.3536
aF0.5333
aF0.4722
aF0.0
aF0.0
aF0.2113
aF0.0
aF0.0
aF0.0
aF0.0
aF0.0
aF0.0
aF0.0
aF0.0
aF0.0
assI25
g0
(tRp401
S'tr_hbips_6_overall_num'
p402
(lp403
F0.0
aF0.02
aF0.0
ag23
(g27
S'\x00\x00\x00\x00\x00\x00\x00\x00'
p404
tp405
Rp406
aF1.0
aF0.1186
aF0.0481
aF0.2675
aF0.0009
aF0.0
aF0.0653
aF0.0
aF0.0024
aF0.0
aF0.0
aF0.0
aF0.0
aF0.0
aF0.0
aF0.0
asS'tr_tob_1_numerator'
p407
(lp408
F0.0
aF0.02
aF0.0
ag23
(g27
S'\x00\x00\x00\x00\x00\x00\x00\x00'
p409
tp410
Rp411
aF1.0
aF0.1144
aF0.047
aF0.2743
aF0.0008
aF0.0
aF0.107
aF0.0
aF0.0069
aF0.0
aF0.0
aF0.0
aF0.0
aF0.0
aF0.0
aF0.0
asS'tr_hbips_7_overall_num'
p412
(lp413
F0.0
aF0.02
aF0.0
ag23
(g27
S'\x00\x00\x00\x00\x00\x00\x00\x00'
p414
tp415
Rp416
aF1.0
aF0.1171
aF0.0526
aF0.2835
aF0.0008
aF0.0
aF0.0654
aF0.0
aF0.002
aF0.0
aF0.0
aF0.0
aF0.0
aF0.0
aF0.0
aF0.0
asS'tr_imm_2_numerator'
p417
(lp418
F0.0
aF0.02
aF0.0
ag23
(g27
S'\x00\x00\x00\x00\x00\x00\x00\x00'
p419
tp420
Rp421
aF1.0
aF0.1047
aF0.0789
aF0.3878
aF0.0004
aF0.0
aF0.0778
aF0.0
aF0.0017
aF0.0
aF0.0
aF0.0
aF0.0
aF0.0
aF0.0
aF0.0
asS'tr_hbips_7_overall_den'
p422
(lp423
F0.0
aF0.02
aF0.0
ag23
(g27
S'\x00\x00\x00\x00\x00\x00\x00\x00'
p424
tp425
Rp426
aF1.0
aF0.1206
aF0.0474
aF0.2609
aF0.001
aF0.0
aF0.1289
aF0.0
aF0.0116
aF0.0
aF0.0
aF0.0
aF0.0
aF0.0
aF0.0
aF0.0
asS'ts_s_fuh_7_numerator'
p427
(lp428
F0.0
aF0.02
aF0.0
ag23
(g27
S'\x00\x00\x00\x00\x00\x00\x00\x00'
p429
tp430
Rp431
aF1.0
aF0.13
aF0.069
aF0.292
aF0.0021
aF0.0
aF0.0674
aF0.0006
aF0.0014
aF0.0
aF0.0
aF0.0
aF0.0
aF0.0
aF0.0
aF0.0
asS'tr_hbips_6_overall_den'
p432
(lp433
F0.0
aF0.02
aF0.0
ag23
(g27
S'\x00\x00\x00\x00\x00\x00\x00\x00'
p434
tp435
Rp436
aF1.0
aF0.121
aF0.0437
aF0.25
aF0.0011
aF0.0
aF0.1284
aF0.0
aF0.0116
aF0.0
aF0.0
aF0.0
aF0.0
aF0.0
aF0.0
aF0.0
asS'tr_tob_1_denominator'
p437
(lp438
F0.0
aF0.02
aF0.0
ag23
(g27
S'\x00\x00\x00\x00\x00\x00\x00\x00'
p439
tp440
Rp441
aF1.0
aF0.1158
aF0.0432
aF0.2597
aF0.0008
aF0.0
aF0.1029
aF0.0
aF0.007
aF0.0
aF0.0
aF0.0
aF0.0
aF0.0
aF0.0
aF0.0
asS'ts_s_hbips_5_overall_num'
p442
(lp443
F0.0
aF0.02
aF0.0
ag23
(g27
S'\x00\x00\x00\x00\x00\x00\x00\x00'
p444
tp445
Rp446
aF1.0
aF0.1192
aF0.0802
aF0.3434
aF0.0012
aF0.0
aF0.0719
aF0.0001
aF0.001
aF0.0
aF0.0
aF0.0
aF0.0
aF0.0
aF0.0
aF0.0
asS'tr_sub_1_denominator'
p447
(lp448
F0.0
aF0.02
aF0.0
ag23
(g27
S'\x00\x00\x00\x00\x00\x00\x00\x00'
p449
tp450
Rp451
aF1.0
aF0.1148
aF0.0494
aF0.2797
aF0.0008
aF0.0
aF0.0595
aF0.0
aF0.0016
aF0.0
aF0.0
aF0.0
aF0.0
aF0.0
aF0.0
aF0.0
asS'ts_s_hbips_5_overall_den'
p452
(lp453
F0.0
aF0.02
aF0.0
ag23
(g27
S'\x00\x00\x00\x00\x00\x00\x00\x00'
p454
tp455
Rp456
aF1.0
aF0.1285
aF0.0791
aF0.3166
aF0.002
aF0.0
aF0.077
aF0.0005
aF0.0018
aF0.0
aF0.0
aF0.0
aF0.0
aF0.0
aF0.0
aF0.0
asS'tr_sub_1_numerator'
p457
(lp458
F0.0
aF0.02
aF0.0
ag23
(g27
S'\x00\x00\x00\x00\x00\x00\x00\x00'
p459
tp460
Rp461
aF1.0
aF0.112
aF0.0613
aF0.3196
aF0.0007
aF0.0
aF0.0575
aF0.0
aF0.0015
aF0.0
aF0.0
aF0.0
aF0.0
aF0.0
aF0.0
aF0.0
asS'ts_s_tob_2a_numerator'
p462
(lp463
F0.0
aF0.02
aF0.0
ag23
(g27
S'\x00\x00\x00\x00\x00\x00\x00\x00'
p464
tp465
Rp466
aF1.0
aF0.1385
aF0.066
aF0.2684
aF0.0037
aF0.0
aF0.0603
aF0.0019
aF0.0021
aF0.0
aF0.0
aF0.0
aF0.0
aF0.0
aF0.0
aF0.0
assI26
g0
(tRp467
S'tr_hbips_2_overall_den'
p468
(lp469
F0.0
aF0.02
aF0.0
ag23
(g27
S'\x00\x00\x00\x00\x00\x00\x00\x00'
p470
tp471
Rp472
aF1.0
aF0.1734
aF0.0987
aF0.262
aF0.0316
aF0.0001
aF0.1182
aF0.0
aF0.1575
aF0.0
aF0.0
aF0.0
aF0.0
aF0.0
aF0.0
aF0.0
asS'tr_hbips_3_overall_den'
p473
(lp474
F0.0
aF0.02
aF0.0
ag23
(g27
S'\x00\x00\x00\x00\x00\x00\x00\x00'
p475
tp476
Rp477
aF1.0
aF0.173
aF0.1027
aF0.268
aF0.0309
aF0.0001
aF0.1164
aF0.0
aF0.1575
aF0.0
aF0.0
aF0.0
aF0.0
aF0.0
aF0.0
aF0.0
assI27
g0
(tRp478
S'ts_s_hbips_7_overall_den'
p479
(lp480
F0.0
aF0.02
aF0.0
ag23
(g27
S'\x00\x00\x00\x00\x00\x00\x00\x00'
p481
tp482
Rp483
aF1.0
aF0.1808
aF0.0523
aF0.183
aF0.0334
aF0.0008
aF0.0616
aF0.0305
aF0.0196
aF0.0
aF0.0
aF0.0
aF0.0
aF0.0
aF0.0
aF0.0
asS'ts_s_tob_1_denominator'
p484
(lp485
F0.0
aF0.02
aF0.0
ag23
(g27
S'\x00\x00\x00\x00\x00\x00\x00\x00'
p486
tp487
Rp488
aF1.0
aF0.1762
aF0.0577
aF0.1971
aF0.0262
aF0.0005
aF0.0648
aF0.0149
aF0.0198
aF0.0
aF0.0
aF0.0
aF0.0
aF0.0
aF0.0
aF0.0
asS'ts_s_sub_1_numerator'
p489
(lp490
F0.0
aF0.02
aF0.0
ag23
(g27
S'\x00\x00\x00\x00\x00\x00\x00\x00'
p491
tp492
Rp493
aF1.0
aF0.1731
aF0.0679
aF0.2176
aF0.0221
aF0.0003
aF0.06
aF0.0125
aF0.012
aF0.0
aF0.0
aF0.0
aF0.0
aF0.0
aF0.0
aF0.0
asS'ts_s_tob_1_numerator'
p494
(lp495
F0.0
aF0.02
aF0.0
ag23
(g27
S'\x00\x00\x00\x00\x00\x00\x00\x00'
p496
tp497
Rp498
aF1.0
aF0.1754
aF0.057
aF0.1967
aF0.024
aF0.0004
aF0.0654
aF0.0122
aF0.0186
aF0.0
aF0.0
aF0.0
aF0.0
aF0.0
aF0.0
aF0.0
asS'ts_s_tob_2_2a__denominator'
p499
(lp500
F0.0
aF0.02
aF0.0
ag23
(g27
S'\x00\x00\x00\x00\x00\x00\x00\x00'
p501
tp502
Rp503
aF1.0
aF0.1623
aF0.0657
aF0.2284
aF0.012
aF0.0001
aF0.0648
aF0.0048
aF0.0085
aF0.0
aF0.0
aF0.0
aF0.0
aF0.0
aF0.0
aF0.0
asS'ts_s_hbips_7_overall_num'
p504
(lp505
F0.0
aF0.02
aF0.0
ag23
(g27
S'\x00\x00\x00\x00\x00\x00\x00\x00'
p506
tp507
Rp508
aF1.0
aF0.18
aF0.0523
aF0.1839
aF0.0263
aF0.0004
aF0.0596
aF0.0279
aF0.0153
aF0.0
aF0.0
aF0.0
aF0.0
aF0.0
aF0.0
aF0.0
asS'ts_s_tob_2_2a_denominator'
p509
(lp510
F0.0
aF0.02
aF0.0
ag23
(g27
S'\x00\x00\x00\x00\x00\x00\x00\x00'
p511
tp512
Rp513
aF1.0
aF0.1623
aF0.0657
aF0.2284
aF0.012
aF0.0001
aF0.0648
aF0.0048
aF0.0085
aF0.0
aF0.0
aF0.0
aF0.0
aF0.0
aF0.0
aF0.0
asS'ts_s_fuh_30_denominator'
p514
(lp515
F0.0
aF0.02
aF0.0
ag23
(g27
S'\x00\x00\x00\x00\x00\x00\x00\x00'
p516
tp517
Rp518
aF1.0
aF0.1531
aF0.0608
aF0.233
aF0.0069
aF0.0
aF0.0646
aF0.0022
aF0.0042
aF0.0
aF0.0
aF0.0
aF0.0
aF0.0
aF0.0
aF0.0
asS'ts_s_fuh_30_numerator'
p519
(lp520
F0.0
aF0.02
aF0.0
ag23
(g27
S'\x00\x00\x00\x00\x00\x00\x00\x00'
p521
tp522
Rp523
aF1.0
aF0.1408
aF0.0593
aF0.2501
aF0.0037
aF0.0
aF0.064
aF0.0013
aF0.0021
aF0.0
aF0.0
aF0.0
aF0.0
aF0.0
aF0.0
aF0.0
asS'ts_s_tob_2_numerator'
p524
(lp525
F0.0
aF0.02
aF0.0
ag23
(g27
S'\x00\x00\x00\x00\x00\x00\x00\x00'
p526
tp527
Rp528
aF1.0
aF0.1531
aF0.0748
aF0.2584
aF0.0074
aF0.0
aF0.0606
aF0.0034
aF0.0037
aF0.0
aF0.0
aF0.0
aF0.0
aF0.0
aF0.0
aF0.0
asS'ts_s_sub_1_denominator'
p529
(lp530
F0.0
aF0.02
aF0.0
ag23
(g27
S'\x00\x00\x00\x00\x00\x00\x00\x00'
p531
tp532
Rp533
aF1.0
aF0.1754
aF0.0639
aF0.2084
aF0.0253
aF0.0004
aF0.0602
aF0.015
aF0.0139
aF0.0
aF0.0
aF0.0
aF0.0
aF0.0
aF0.0
aF0.0
asS'ts_s_imm_2_denominator'
p534
(lp535
F0.0
aF0.02
aF0.0
ag23
(g27
S'\x00\x00\x00\x00\x00\x00\x00\x00'
p536
tp537
Rp538
aF1.0
aF0.17
aF0.0619
aF0.2118
aF0.018
aF0.0003
aF0.071
aF0.0174
aF0.0179
aF0.0
aF0.0
aF0.0
aF0.0
aF0.0
aF0.0
aF0.0
asS'ts_s_fuh_7_denominator'
p539
(lp540
F0.0
aF0.02
aF0.0
ag23
(g27
S'\x00\x00\x00\x00\x00\x00\x00\x00'
p541
tp542
Rp543
aF1.0
aF0.1531
aF0.0608
aF0.233
aF0.0069
aF0.0
aF0.0646
aF0.0022
aF0.0042
aF0.0
aF0.0
aF0.0
aF0.0
aF0.0
aF0.0
aF0.0
asS'ts_s_hbips_6_overall_num'
p544
(lp545
F0.0
aF0.02
aF0.0
ag23
(g27
S'\x00\x00\x00\x00\x00\x00\x00\x00'
p546
tp547
Rp548
aF1.0
aF0.1808
aF0.0523
aF0.183
aF0.0283
aF0.0005
aF0.0596
aF0.0292
aF0.0165
aF0.0
aF0.0
aF0.0
aF0.0
aF0.0
aF0.0
aF0.0
asS'ts_s_imm_2_numerator'
p549
(lp550
F0.0
aF0.02
aF0.0
ag23
(g27
S'\x00\x00\x00\x00\x00\x00\x00\x00'
p551
tp552
Rp553
aF1.0
aF0.1631
aF0.0688
aF0.2324
aF0.0128
aF0.0001
aF0.0604
aF0.0107
aF0.0076
aF0.0
aF0.0
aF0.0
aF0.0
aF0.0
aF0.0
aF0.0
asS'ts_s_hbips_6_overall_den'
p554
(lp555
F0.0
aF0.02
aF0.0
ag23
(g27
S'\x00\x00\x00\x00\x00\x00\x00\x00'
p556
tp557
Rp558
aF1.0
aF0.1808
aF0.0523
aF0.183
aF0.0334
aF0.0008
aF0.0616
aF0.0305
aF0.0196
aF0.0
aF0.0
aF0.0
aF0.0
aF0.0
aF0.0
aF0.0
assI31
g0
(tRp559
S'tr_hbips_3_overall_num'
p560
(lp561
F0.0
aF0.02
aF0.0
ag23
(g27
S'\x00\x00\x00\x00\x00\x00\x00\x00'
p562
tp563
Rp564
aF1.0
aF0.0644
aF0.1185
aF0.7736
aF0.0004
aF0.0
aF1.0
aF0.0
aF0.0343
aF0.0
aF0.0
aF0.0
aF0.0
aF0.0
aF0.0
aF0.0
asS'tr_hbips_2_overall_num'
p565
(lp566
F0.0
aF0.02
aF0.0
ag23
(g27
S'\x00\x00\x00\x00\x00\x00\x00\x00'
p567
tp568
Rp569
aF1.0
aF0.072
aF0.131
aF0.7268
aF0.0005
aF0.0
aF0.7263
aF0.0
aF0.0343
aF0.0
aF0.0
aF0.0
aF0.0
aF0.0
aF0.0
aF0.0
assI32
g0
(tRp570
S'tr_fuh_30_denominator'
p571
(lp572
F0.0
aF0.02
aF0.0
ag23
(g27
S'\x00\x00\x00\x00\x00\x00\x00\x00'
p573
tp574
Rp575
aF1.0
aF0.0888
aF0.0965
aF0.5059
aF0.0002
aF0.0
aF0.0673
aF0.0
aF0.0003
aF0.0
aF0.0
aF0.0
aF0.0
aF0.0
aF0.0
aF0.0
asS'tr_hbips_5_overall_den'
p576
(lp577
F0.0
aF0.02
aF0.0
ag23
(g27
S'\x00\x00\x00\x00\x00\x00\x00\x00'
p578
tp579
Rp580
aF1.0
aF0.0594
aF0.0657
aF0.6244
aF0.0001
aF0.0
aF0.2004
aF0.0
aF0.0006
aF0.0
aF0.0
aF0.0
aF0.0
aF0.0
aF0.0
aF0.0
asS'tr_tob_2_numerator'
p581
(lp582
F0.0
aF0.02
aF0.0
ag23
(g27
S'\x00\x00\x00\x00\x00\x00\x00\x00'
p583
tp584
Rp585
aF1.0
aF0.0902
aF0.1058
aF0.5215
aF0.0002
aF0.0
aF0.0794
aF0.0
aF0.0005
aF0.0
aF0.0
aF0.0
aF0.0
aF0.0
aF0.0
aF0.0
asS'tr_fuh_7_numerator'
p586
(lp587
F0.0
aF0.02
aF0.0
ag23
(g27
S'\x00\x00\x00\x00\x00\x00\x00\x00'
p588
tp589
Rp590
aF1.0
aF0.0704
aF0.0579
aF0.495
aF0.0001
aF0.0
aF0.0773
aF0.0
aF0.0001
aF0.0
aF0.0
aF0.0
aF0.0
aF0.0
aF0.0
aF0.0
asS'tr_tob_2_2a_denominator'
p591
(lp592
F0.0
aF0.02
aF0.0
ag23
(g27
S'\x00\x00\x00\x00\x00\x00\x00\x00'
p593
tp594
Rp595
aF1.0
aF0.0995
aF0.1069
aF0.4754
aF0.0004
aF0.0
aF0.1232
aF0.0
aF0.0036
aF0.0
aF0.0
aF0.0
aF0.0
aF0.0
aF0.0
aF0.0
asS'tr_tob_2_2a__denominator'
p596
(lp597
F0.0
aF0.02
aF0.0
ag23
(g27
S'\x00\x00\x00\x00\x00\x00\x00\x00'
p598
tp599
Rp600
aF1.0
aF0.0926
aF0.1432
aF0.5909
aF0.0003
aF0.0
aF0.1338
aF0.0
aF0.0036
aF0.0
aF0.0
aF0.0
aF0.0
aF0.0
aF0.0
aF0.0
asS'tr_tob_2a_numerator'
p601
(lp602
F0.0
aF0.02
aF0.0
ag23
(g27
S'\x00\x00\x00\x00\x00\x00\x00\x00'
p603
tp604
Rp605
aF1.0
aF0.0742
aF0.0976
aF0.6094
aF0.0001
aF0.0
aF0.1109
aF0.0
aF0.0005
aF0.0
aF0.0
aF0.0
aF0.0
aF0.0
aF0.0
aF0.0
asS'tr_fuh_7_denominator'
p606
(lp607
F0.0
aF0.02
aF0.0
ag23
(g27
S'\x00\x00\x00\x00\x00\x00\x00\x00'
p608
tp609
Rp610
aF1.0
aF0.0838
aF0.1259
aF0.6125
aF0.0002
aF0.0
aF0.0724
aF0.0
aF0.0003
aF0.0
aF0.0
aF0.0
aF0.0
aF0.0
aF0.0
aF0.0
asS'tr_hbips_5_overall_num'
p611
(lp612
F0.0
aF0.02
aF0.0
ag23
(g27
S'\x00\x00\x00\x00\x00\x00\x00\x00'
p613
tp614
Rp615
aF1.0
aF0.0573
aF0.0539
aF0.5852
aF0.0
aF0.0
aF0.1572
aF0.0
aF0.0002
aF0.0
aF0.0
aF0.0
aF0.0
aF0.0
aF0.0
aF0.0
asS'tr_fuh_30_numerator'
p616
(lp617
F0.0
aF0.02
aF0.0
ag23
(g27
S'\x00\x00\x00\x00\x00\x00\x00\x00'
p618
tp619
Rp620
aF1.0
aF0.0802
aF0.0664
aF0.4651
aF0.0001
aF0.0
aF0.0677
aF0.0
aF0.0002
aF0.0
aF0.0
aF0.0
aF0.0
aF0.0
aF0.0
aF0.0
assI33
g0
(tRp621
S'tr_hcp_denominator'
p622
(lp623
F0.0
aF0.02
aF0.0
ag23
(g27
S'\x00\x00\x00\x00\x00\x00\x00\x00'
p624
tp625
Rp626
aF1.0
aF0.1013
aF0.0887
aF0.4251
aF0.0007
aF0.0
aF0.2059
aF0.0
aF0.0095
aF0.0
aF0.0
aF0.0
aF0.0
aF0.0
aF0.0
aF0.0
asS'tr_hcp_numerator'
p627
(lp628
F0.0
aF0.02
aF0.0
ag23
(g27
S'\x00\x00\x00\x00\x00\x00\x00\x00'
p629
tp630
Rp631
aF1.0
aF0.0977
aF0.0826
aF0.4252
aF0.0005
aF0.0
aF0.2292
aF0.0
aF0.0083
aF0.0
aF0.0
aF0.0
aF0.0
aF0.0
aF0.0
aF0.0
asS'ts_s_hbips_2_overall_num'
p632
(lp633
F0.0
aF0.02
aF0.0
ag23
(g27
S'\x00\x00\x00\x00\x00\x00\x00\x00'
p634
tp635
Rp636
aF1.0
aF0.1554
aF0.1372
aF0.3447
aF0.0164
aF0.0008
aF0.133
aF0.0019
aF0.0356
aF0.0
aF0.0
aF0.0
aF0.0
aF0.0
aF0.0
aF0.0
asS'tr_imm_2_denominator'
p637
(lp638
F0.0
aF0.02
aF0.0
ag23
(g27
S'\x00\x00\x00\x00\x00\x00\x00\x00'
p639
tp640
Rp641
aF1.0
aF0.1105
aF0.0622
aF0.3264
aF0.0006
aF0.0
aF0.1679
aF0.0
aF0.0085
aF0.0
aF0.0
aF0.0
aF0.0
aF0.0
aF0.0
aF0.0
asS'ts_s_hbips_3_overall_num'
p642
(lp643
F0.0
aF0.02
aF0.0
ag23
(g27
S'\x00\x00\x00\x00\x00\x00\x00\x00'
p644
tp645
Rp646
aF1.0
aF0.1523
aF0.1049
aF0.3076
aF0.0114
aF0.0007
aF0.1789
aF0.0024
aF0.0353
aF0.0
aF0.0
aF0.0
aF0.0
aF0.0
aF0.0
aF0.0
assI34
g0
(tRp647
S'ts_s_hcp_denominator'
p648
(lp649
F0.0
aF0.02
aF0.0
ag23
(g27
S'\x00\x00\x00\x00\x00\x00\x00\x00'
p650
tp651
Rp652
aF1.0
aF0.2223
aF0.0517
aF0.148
aF0.3538
aF0.088
aF0.0628
aF0.2371
aF0.2616
aF0.0
aF0.0
aF0.0
aF0.0
aF0.0
aF0.0
aF0.0
asS'ts_s_hcp_numerator'
p653
(lp654
F0.0
aF0.02
aF0.0
ag23
(g27
S'\x00\x00\x00\x00\x00\x00\x00\x00'
p655
tp656
Rp657
aF1.0
aF0.22
aF0.0523
aF0.1505
aF0.3024
aF0.061
aF0.0612
aF0.1547
aF0.2147
aF0.0
aF0.0
aF0.0
aF0.0
aF0.0
aF0.0
aF0.0
assI40
g0
(tRp658
S'ts_st_no'
p659
(lp660
F0.0
aF1.0
aF0.0
ag23
(g27
S'\x00\x00\x00\x00\x00\x00\x00\x00'
p661
tp662
Rp663
aF1.0
aF0.0028
aF0.0022
aF0.3431
aF0.0038
aF0.0
aF0.0817
aF0.0003
aF0.0042
aF0.0
aF0.0
aF0.0
aF0.0
aF0.0
aF0.0
aF0.0
asS'tr_provider_number'
p664
(lp665
F0.0
aF1.0
aF1.0
ag23
(g27
S'\x00\x00\x00\x00\x00\x00\x00\x00'
p666
tp667
Rp668
aF1.0
aF0.0047
aF0.0005
aF0.0952
aF0.5017
aF0.0017
aF0.0344
aF0.3652
aF0.1886
aF0.0
aF0.0
aF0.0
aF0.0
aF0.0
aF0.0
aF0.0
assI41
g0
(tRp669
S'ts_s_hbips_2_overall_den'
p670
(lp671
F0.0
aF0.02
aF0.0
ag23
(g27
S'\x00\x00\x00\x00\x00\x00\x00\x00'
p672
tp673
Rp674
aF1.0
aF0.2385
aF0.0626
aF0.1517
aF1.0
aF1.0
aF0.0749
aF1.0
aF1.0
aF0.0
aF0.0
aF0.0
aF0.0
aF0.0
aF0.0
aF0.0
asS'ts_s_hbips_3_overall_den'
p675
(lp676
F0.0
aF0.02
aF0.0
ag23
(g27
S'\x00\x00\x00\x00\x00\x00\x00\x00'
p677
tp678
Rp679
aF1.0
aF0.2385
aF0.0626
aF0.1517
aF0.9775
aF0.9539
aF0.0749
aF1.0
aF0.9887
aF0.0
aF0.0
aF0.0
aF0.0
aF0.0
aF0.0
aF0.0
assI44
g0
(tRp680
S'tr_sub_1_footnote'
p681
(lp682
F0.25
aF0.008
aF0.0
ag23
(g27
S'\x00\x00\x00\x00\x00\x00\x00\x00'
p683
tp684
Rp685
aF0.0
aF0.3863
aF0.1778
aF0.2495
aF0.0
aF0.0
aF0.3418
aF0.0
aF0.0
aF0.0
aF0.0
aF0.0
aF0.0
aF0.0
aF0.0
aF0.0
asS'ts_s_ehr_non_certified_count'
p686
(lp687
F0.25
aF0.008
aF0.0
ag23
(g27
S'\x00\x00\x00\x00\x00\x00\x00\x00'
p688
tp689
Rp690
aF0.0
aF0.1
aF0.0
aF0.0
aF0.0
aF0.0
aF0.077
aF0.0
aF0.0
aF0.0
aF0.0
aF0.0
aF0.0
aF0.0
aF0.0
aF0.0
asS'tr_tob_1_footnote'
p691
(lp692
F0.25
aF0.008
aF0.0
ag23
(g27
S'\x00\x00\x00\x00\x00\x00\x00\x00'
p693
tp694
Rp695
aF0.0
aF0.3894
aF0.139
aF0.2189
aF0.0
aF0.0
aF0.3639
aF0.0
aF0.0
aF0.0
aF0.0
aF0.0
aF0.0
aF0.0
aF0.0
aF0.0
asS'tr_hcp_footnote'
p696
(lp697
F0.25
aF0.008
aF0.0
ag23
(g27
S'\x00\x00\x00\x00\x00\x00\x00\x00'
p698
tp699
Rp700
aF0.0
aF0.3825
aF0.2245
aF0.2832
aF0.0
aF0.0
aF0.295
aF0.0
aF0.0
aF0.0
aF0.0
aF0.0
aF0.0
aF0.0
aF0.0
aF0.0
asS'tr_imm_2_footnote'
p701
(lp702
F0.25
aF0.008
aF0.0
ag23
(g27
S'\x00\x00\x00\x00\x00\x00\x00\x00'
p703
tp704
Rp705
aF0.0
aF0.3825
aF0.2245
aF0.2832
aF0.0
aF0.0
aF0.3276
aF0.0
aF0.0
aF0.0
aF0.0
aF0.0
aF0.0
aF0.0
aF0.0
aF0.0
assI45
g0
(tRp706
S'tr_hbips_2_overall_footnote'
p707
(lp708
F0.25
aF0.008
aF0.0
ag23
(g27
S'\x00\x00\x00\x00\x00\x00\x00\x00'
p709
tp710
Rp711
aF0.0
aF0.3944
aF0.0755
aF0.1594
aF0.0
aF0.0
aF0.4502
aF0.0
aF0.0
aF0.0
aF0.0
aF0.0
aF0.0
aF0.0
aF0.0
aF0.0
asS'tr_hie_footnote'
p712
(lp713
F0.25
aF0.008
aF0.0
ag23
(g27
S'\x00\x00\x00\x00\x00\x00\x00\x00'
p714
tp715
Rp716
aF0.0
aF0.3967
aF0.0443
aF0.1212
aF0.0
aF0.0
aF0.585
aF0.0
aF0.0
aF0.0
aF0.0
aF0.0
aF0.0
aF0.0
aF0.0
aF0.0
asS'tr_hbips_7_overall_footnote'
p717
(lp718
F0.25
aF0.008
aF0.0
ag23
(g27
S'\x00\x00\x00\x00\x00\x00\x00\x00'
p719
tp720
Rp721
aF0.0
aF0.3925
aF0.0993
aF0.1836
aF0.0
aF0.0
aF0.4823
aF0.0
aF0.0
aF0.0
aF0.0
aF0.0
aF0.0
aF0.0
aF0.0
aF0.0
asS'tr_hbips_3_overall_footnote'
p722
(lp723
F0.25
aF0.008
aF0.0
ag23
(g27
S'\x00\x00\x00\x00\x00\x00\x00\x00'
p724
tp725
Rp726
aF0.0
aF0.3936
aF0.0851
aF0.1694
aF0.0
aF0.0
aF0.4228
aF0.0
aF0.0
aF0.0
aF0.0
aF0.0
aF0.0
aF0.0
aF0.0
aF0.0
asS'tr_hbips_5_overall_percentage_of_total'
p727
(lp728
F0.0
aF0.01
aF0.0
ag23
(g27
S'\x00\x00\x00\x00\x00\x00\x00\x00'
p729
tp730
Rp731
aF0.0
aF0.08
aF0.0
aF0.0
aF0.0
aF0.0
aF0.0854
aF0.0
aF0.0
aF0.0
aF0.0
aF0.0
aF0.0
aF0.0
aF0.0
aF0.0
asS'tr_hbips_6_overall_footnote'
p732
(lp733
F0.25
aF0.008
aF0.0
ag23
(g27
S'\x00\x00\x00\x00\x00\x00\x00\x00'
p734
tp735
Rp736
aF0.0
aF0.394
aF0.0804
aF0.1645
aF0.0
aF0.0
aF0.5122
aF0.0
aF0.0
aF0.0
aF0.0
aF0.0
aF0.0
aF0.0
aF0.0
aF0.0
asS'tr_ehr_use_footnote'
p737
(lp738
F0.25
aF0.008
aF0.0
ag23
(g27
S'\x00\x00\x00\x00\x00\x00\x00\x00'
p739
tp740
Rp741
aF0.0
aF0.3967
aF0.0443
aF0.1212
aF0.0
aF0.0
aF0.585
aF0.0
aF0.0
aF0.0
aF0.0
aF0.0
aF0.0
aF0.0
aF0.0
aF0.0
asS'tr_tob_2a_percentage'
p742
(lp743
F0.0
aF0.01
aF0.0
ag23
(g27
S'\x00\x00\x00\x00\x00\x00\x00\x00'
p744
tp745
Rp746
aF0.0
aF0.08
aF0.0
aF0.0
aF0.0
aF0.0
aF0.1078
aF0.0
aF0.0
aF0.0
aF0.0
aF0.0
aF0.0
aF0.0
aF0.0
aF0.0
asS'tr_fuh_7_percentage'
p747
(lp748
F0.0
aF0.01
aF0.0
ag23
(g27
S'\x00\x00\x00\x00\x00\x00\x00\x00'
p749
tp750
Rp751
aF0.0
aF0.08
aF0.0
aF0.0
aF0.0
aF0.0
aF0.2432
aF0.0
aF0.0
aF0.0
aF0.0
aF0.0
aF0.0
aF0.0
aF0.0
aF0.0
asS'tr_peoc_assessed_footnote'
p752
(lp753
F0.25
aF0.008
aF0.0
ag23
(g27
S'\x00\x00\x00\x00\x00\x00\x00\x00'
p754
tp755
Rp756
aF0.0
aF0.3967
aF0.0443
aF0.1212
aF0.0
aF0.0
aF0.585
aF0.0
aF0.0
aF0.0
aF0.0
aF0.0
aF0.0
aF0.0
aF0.0
aF0.0
assI46
g0
(tRp757
S'tr_tob_1_percentage'
p758
(lp759
F0.0
aF0.01
aF0.0
ag23
(g27
S'\x00\x00\x00\x00\x00\x00\x00\x00'
p760
tp761
Rp762
aF0.0
aF0.08
aF0.0
aF0.0
aF0.0
aF0.0
aF0.0157
aF0.0
aF0.0
aF0.0
aF0.0
aF0.0
aF0.0
aF0.0
aF0.0
aF0.0
asS'tr_imm_2_percentage'
p763
(lp764
F0.0
aF0.01
aF0.0
ag23
(g27
S'\x00\x00\x00\x00\x00\x00\x00\x00'
p765
tp766
Rp767
aF0.0
aF0.08
aF0.0
aF0.0
aF0.0
aF0.0
aF0.0292
aF0.0
aF0.0
aF0.0
aF0.0
aF0.0
aF0.0
aF0.0
aF0.0
aF0.0
asS'ts_s_tob_2a_percentage'
p768
(lp769
F0.0
aF0.01
aF0.0
ag23
(g27
S'\x00\x00\x00\x00\x00\x00\x00\x00'
p770
tp771
Rp772
aF0.0
aF0.16
aF0.0
aF0.0
aF0.0001
aF0.0
aF0.0215
aF0.0004
aF0.0
aF0.0
aF0.0
aF0.0
aF0.0
aF0.0
aF0.0
aF0.0
asS'tr_fuh_30_percentage'
p773
(lp774
F0.0
aF0.01
aF0.0
ag23
(g27
S'\x00\x00\x00\x00\x00\x00\x00\x00'
p775
tp776
Rp777
aF0.0
aF0.08
aF0.0
aF0.0
aF0.0
aF0.0
aF0.0558
aF0.0
aF0.0
aF0.0
aF0.0
aF0.0
aF0.0
aF0.0
aF0.0
aF0.0
asS'ts_s_sub_1_percentage'
p778
(lp779
F0.0
aF0.01
aF0.0
ag23
(g27
S'\x00\x00\x00\x00\x00\x00\x00\x00'
p780
tp781
Rp782
aF0.0
aF0.16
aF0.0
aF0.0
aF0.0002
aF0.0
aF0.0066
aF0.002
aF0.0
aF0.0
aF0.0
aF0.0
aF0.0
aF0.0
aF0.0
aF0.0
asS'ts_s_ehr_paper_percentage'
p783
(lp784
F0.0
aF0.01
aF0.0
ag23
(g27
S'\x00\x00\x00\x00\x00\x00\x00\x00'
p785
tp786
Rp787
aF0.0
aF0.1615
aF0.0069
aF0.1047
aF0.0001
aF0.0
aF0.0156
aF0.0007
aF0.0
aF0.0
aF0.0
aF0.0
aF0.0
aF0.0
aF0.0
aF0.0
asS'ts_s_hbips_5_overall_percentage_of_total'
p788
(lp789
F0.0
aF0.01
aF0.0
ag23
(g27
S'\x00\x00\x00\x00\x00\x00\x00\x00'
p790
tp791
Rp792
aF0.0
aF0.16
aF0.0
aF0.0
aF0.0001
aF0.0
aF0.0164
aF0.0008
aF0.0
aF0.0
aF0.0
aF0.0
aF0.0
aF0.0
aF0.0
aF0.0
asS'tr_tob_2_percentage'
p793
(lp794
F0.0
aF0.01
aF0.0
ag23
(g27
S'\x00\x00\x00\x00\x00\x00\x00\x00'
p795
tp796
Rp797
aF0.0
aF0.08
aF0.0
aF0.0
aF0.0
aF0.0
aF0.0473
aF0.0
aF0.0
aF0.0
aF0.0
aF0.0
aF0.0
aF0.0
aF0.0
aF0.0
asS'tr_hbips_6_overall_percentage_of_total'
p798
(lp799
F0.0
aF0.01
aF0.0
ag23
(g27
S'\x00\x00\x00\x00\x00\x00\x00\x00'
p800
tp801
Rp802
aF0.0
aF0.08
aF0.0
aF0.0
aF0.0
aF0.0
aF0.0175
aF0.0
aF0.0
aF0.0
aF0.0
aF0.0
aF0.0
aF0.0
aF0.0
aF0.0
asS'ts_s_tob_1_percentage'
p803
(lp804
F0.0
aF0.01
aF0.0
ag23
(g27
S'\x00\x00\x00\x00\x00\x00\x00\x00'
p805
tp806
Rp807
aF0.0
aF0.16
aF0.0
aF0.0
aF0.0002
aF0.0
aF0.0052
aF0.0023
aF0.0
aF0.0
aF0.0
aF0.0
aF0.0
aF0.0
aF0.0
aF0.0
asS'tr_zip_code'
p808
(lp809
F0.25
aF0.008
aF0.0
ag23
(g27
S'\x00\x00\x00\x00\x00\x00\x00\x00'
p810
tp811
Rp812
aF0.0
aF0.49
aF0.0446
aF0.0986
aF0.0913
aF0.0001
aF0.0358
aF0.0227
aF0.0281
aF0.0
aF0.0
aF0.0
aF0.0
aF0.0
aF0.0
aF0.0
asS'ts_s_hcp_percentage'
p813
(lp814
F0.0
aF0.01
aF0.0
ag23
(g27
S'\x00\x00\x00\x00\x00\x00\x00\x00'
p815
tp816
Rp817
aF0.0
aF0.16
aF0.0
aF0.0
aF0.0002
aF0.0
aF0.0051
aF0.0023
aF0.0
aF0.0
aF0.0
aF0.0
aF0.0
aF0.0
aF0.0
aF0.0
asS'tr_sub_1_percentage'
p818
(lp819
F0.0
aF0.01
aF0.0
ag23
(g27
S'\x00\x00\x00\x00\x00\x00\x00\x00'
p820
tp821
Rp822
aF0.0
aF0.08
aF0.0
aF0.0
aF0.0
aF0.0
aF0.0208
aF0.0
aF0.0
aF0.0
aF0.0
aF0.0
aF0.0
aF0.0
aF0.0
aF0.0
asS'ts_s_imm_2_percentage'
p823
(lp824
F0.0
aF0.01
aF0.0
ag23
(g27
S'\x00\x00\x00\x00\x00\x00\x00\x00'
p825
tp826
Rp827
aF0.0
aF0.16
aF0.0
aF0.0
aF0.0001
aF0.0
aF0.0105
aF0.0012
aF0.0
aF0.0
aF0.0
aF0.0
aF0.0
aF0.0
aF0.0
aF0.0
asS'ts_s_fuh_7_percentage'
p828
(lp829
F0.0
aF0.01
aF0.0
ag23
(g27
S'\x00\x00\x00\x00\x00\x00\x00\x00'
p830
tp831
Rp832
aF0.0
aF0.16
aF0.0
aF0.0
aF0.0001
aF0.0
aF0.0155
aF0.0006
aF0.0
aF0.0
aF0.0
aF0.0
aF0.0
aF0.0
aF0.0
aF0.0
asS'ts_s_tob_2_percentage'
p833
(lp834
F0.0
aF0.01
aF0.0
ag23
(g27
S'\x00\x00\x00\x00\x00\x00\x00\x00'
p835
tp836
Rp837
aF0.0
aF0.16
aF0.0
aF0.0
aF0.0001
aF0.0
aF0.0147
aF0.0007
aF0.0
aF0.0
aF0.0
aF0.0
aF0.0
aF0.0
aF0.0
aF0.0
asS'ts_s_hbips_6_overall_percentage_of_total'
p838
(lp839
F0.0
aF0.01
aF0.0
ag23
(g27
S'\x00\x00\x00\x00\x00\x00\x00\x00'
p840
tp841
Rp842
aF0.0
aF0.16
aF0.0
aF0.0
aF0.0002
aF0.0
aF0.0071
aF0.0014
aF0.0
aF0.0
aF0.0
aF0.0
aF0.0
aF0.0
aF0.0
aF0.0
asS'ts_s_fuh_30_percentage'
p843
(lp844
F0.0
aF0.01
aF0.0
ag23
(g27
S'\x00\x00\x00\x00\x00\x00\x00\x00'
p845
tp846
Rp847
aF0.0
aF0.16
aF0.0
aF0.0
aF0.0001
aF0.0
aF0.0109
aF0.0009
aF0.0
aF0.0
aF0.0
aF0.0
aF0.0
aF0.0
aF0.0
aF0.0
asS'ts_s_hbips_7_overall_percentage_of_total'
p848
(lp849
F0.0
aF0.01
aF0.0
ag23
(g27
S'\x00\x00\x00\x00\x00\x00\x00\x00'
p850
tp851
Rp852
aF0.0
aF0.16
aF0.0
aF0.0
aF0.0002
aF0.0
aF0.0085
aF0.0013
aF0.0
aF0.0
aF0.0
aF0.0
aF0.0
aF0.0
aF0.0
aF0.0
asS'tr_hbips_7_overall_percentage_of_total'
p853
(lp854
F0.0
aF0.01
aF0.0
ag23
(g27
S'\x00\x00\x00\x00\x00\x00\x00\x00'
p855
tp856
Rp857
aF0.0
aF0.08
aF0.0
aF0.0
aF0.0
aF0.0
aF0.0218
aF0.0
aF0.0
aF0.0
aF0.0
aF0.0
aF0.0
aF0.0
aF0.0
aF0.0
ass.