ccollections
defaultdict
p0
(cdill.dill
_create_function
p1
(cdill.dill
_load_type
p2
(S'CodeType'
p3
tp4
Rp5
(I0
I0
I1
I67
S't\x00\x00\x83\x00\x00S'
p6
(Ntp7
(S'defaultdict'
p8
tp9
(tS'Run_me.py'
p10
S'<lambda>'
p11
I149
S''
p12
(t(ttp13
Rp14
c__main__
__dict__
g11
NN(dp15
tp16
Rp17
tp18
Rp19
I0
g0
(tRp20
S'ts_s_fuh_measure_end_date'
p21
(lp22
F1.0
aF0.008
aF0.0
acnumpy.core.multiarray
scalar
p23
(cnumpy
dtype
p24
(S'f8'
p25
I0
I1
tp26
Rp27
(I3
S'<'
p28
NNNI-1
I-1
I0
tp29
bS'\x00\x00\x00\x00\x00\x00\x00\x00'
p30
tp31
Rp32
aF0.0
aF1.0
aF0.0
aF0.0
aF0.0
aF0.0
aF0.0
aF0.0
aF0.0
aF0.0
aF0.8681
aF1.0
aF0.2
aF1.0
aF0.0
aF0.0
asS'ts_s_flu_season_start_date'
p33
(lp34
F1.0
aF0.008
aF0.0
ag23
(g27
S'\x00\x00\x00\x00\x00\x00\x00\x00'
p35
tp36
Rp37
aF0.0
aF1.0
aF0.0
aF0.0
aF0.0
aF0.0
aF0.0
aF0.0
aF0.0
aF0.0
aF0.8681
aF1.0
aF0.2
aF1.0
aF0.0
aF0.0
asS'ts_s_fuh_measure_start_date'
p38
(lp39
F1.0
aF0.008
aF0.0
ag23
(g27
S'\x00\x00\x00\x00\x00\x00\x00\x00'
p40
tp41
Rp42
aF0.0
aF1.0
aF0.0
aF0.0
aF0.0
aF0.0
aF0.0
aF0.0
aF0.0
aF0.0
aF0.8681
aF1.0
aF0.2
aF1.0
aF0.0
aF0.0
asS'tr_fuh_measure_start_date'
p43
(lp44
F1.0
aF0.008
aF0.0
ag23
(g27
S'\x00\x00\x00\x00\x00\x00\x00\x00'
p45
tp46
Rp47
aF0.0
aF1.0
aF0.0
aF0.0
aF0.0
aF0.0
aF0.0
aF0.0
aF0.0
aF0.0
aF0.8681
aF1.0
aF0.2
aF1.0
aF0.0
aF0.0
asS'tr_end_date'
p48
(lp49
F1.0
aF0.008
aF0.0
ag23
(g27
S'\x00\x00\x00\x00\x00\x00\x00\x00'
p50
tp51
Rp52
aF0.0
aF1.0
aF0.0
aF0.0
aF0.0
aF0.0
aF0.0
aF0.0
aF0.0
aF0.0
aF0.8681
aF1.0
aF0.2
aF1.0
aF0.0
aF0.0
asS'tr_flu_season_start_date'
p53
(lp54
F1.0
aF0.008
aF0.0
ag23
(g27
S'\x00\x00\x00\x00\x00\x00\x00\x00'
p55
tp56
Rp57
aF0.0
aF1.0
aF0.0
aF0.0
aF0.0
aF0.0
aF0.0
aF0.0
aF0.0
aF0.0
aF0.8681
aF1.0
aF0.2
aF1.0
aF0.0
aF0.0
asS'ts_start_date'
p58
(lp59
F1.0
aF0.008
aF0.0
ag23
(g27
S'\x00\x00\x00\x00\x00\x00\x00\x00'
p60
tp61
Rp62
aF0.0
aF1.0
aF0.0
aF0.0
aF0.0
aF0.0
aF0.0
aF0.0
aF0.0
aF0.0
aF0.8681
aF1.0
aF0.2
aF1.0
aF0.0
aF0.0
asS'tr_fuh_measure_end_date'
p63
(lp64
F1.0
aF0.008
aF0.0
ag23
(g27
S'\x00\x00\x00\x00\x00\x00\x00\x00'
p65
tp66
Rp67
aF0.0
aF1.0
aF0.0
aF0.0
aF0.0
aF0.0
aF0.0
aF0.0
aF0.0
aF0.0
aF0.8681
aF1.0
aF0.2
aF1.0
aF0.0
aF0.0
asS'tr_flu_season_end_date'
p68
(lp69
F1.0
aF0.008
aF0.0
ag23
(g27
S'\x00\x00\x00\x00\x00\x00\x00\x00'
p70
tp71
Rp72
aF0.0
aF1.0
aF0.0
aF0.0
aF0.0
aF0.0
aF0.0
aF0.0
aF0.0
aF0.0
aF0.8681
aF1.0
aF0.2
aF1.0
aF0.0
aF0.0
asS'ts_s_flu_season_end_date'
p73
(lp74
F1.0
aF0.008
aF0.0
ag23
(g27
S'\x00\x00\x00\x00\x00\x00\x00\x00'
p75
tp76
Rp77
aF0.0
aF1.0
aF0.0
aF0.0
aF0.0
aF0.0
aF0.0
aF0.0
aF0.0
aF0.0
aF0.8681
aF1.0
aF0.2
aF1.0
aF0.0
aF0.0
asS'ts_end_date'
p78
(lp79
F1.0
aF0.008
aF0.0
ag23
(g27
S'\x00\x00\x00\x00\x00\x00\x00\x00'
p80
tp81
Rp82
aF0.0
aF1.0
aF0.0
aF0.0
aF0.0
aF0.0
aF0.0
aF0.0
aF0.0
aF0.0
aF0.8681
aF1.0
aF0.2
aF1.0
aF0.0
aF0.0
asS'tr_start_date'
p83
(lp84
F1.0
aF0.008
aF0.0
ag23
(g27
S'\x00\x00\x00\x00\x00\x00\x00\x00'
p85
tp86
Rp87
aF0.0
aF1.0
aF0.0
aF0.0
aF0.0
aF0.0
aF0.0
aF0.0
aF0.0
aF0.0
aF0.8681
aF1.0
aF0.2
aF1.0
aF0.0
aF0.0
assI6
g0
(tRp88
S'tr_hbips_3_overall_rate_per_1000'
p89
(lp90
F0.5
aF1.0
aF0.0
ag23
(g27
S'\x00\x00\x00\x00\x00\x00\x00\x00'
p91
tp92
Rp93
aF0.0
aF0.0021
aF0.0078
aF0.8545
aF0.0
aF0.0
aF0.0
aF0.0
aF0.0
aF0.0
aF0.9197
aF0.9851
aF0.2119
aF0.0
aF0.0
aF0.0
asS'tr_hbips_2_overall_rate_per_1000'
p94
(lp95
F0.5
aF1.0
aF0.0
ag23
(g27
S'\x00\x00\x00\x00\x00\x00\x00\x00'
p96
tp97
Rp98
aF0.0
aF0.0025
aF0.0065
aF0.6624
aF0.0
aF0.0
aF0.0
aF0.0
aF0.0
aF0.0
aF1.0
aF0.962
aF0.2304
aF0.0
aF0.0
aF0.0
assI7
g0
(tRp99
S'ts_s_hbips_2_overall_rate_per_1000'
p100
(lp101
F0.0
aF1.0
aF0.0
ag23
(g27
S'\x00\x00\x00\x00\x00\x00\x00\x00'
p102
tp103
Rp104
aF0.0
aF0.0008
aF0.0
aF0.0
aF0.0
aF0.0
aF0.0962
aF0.0
aF0.0
aF0.0
aF0.0
aF0.0
aF0.0
aF0.0
aF0.0
aF0.0
asS'ts_s_hie_no_percent'
p105
(lp106
F0.0
aF1.0
aF0.0
ag23
(g27
S'\x00\x00\x00\x00\x00\x00\x00\x00'
p107
tp108
Rp109
aF0.0
aF0.0016
aF0.0002
aF0.1452
aF0.0001
aF0.0
aF0.0135
aF0.0011
aF0.0
aF0.0
aF0.0
aF0.0
aF0.0
aF0.0
aF0.0
aF0.0
asS'ts_s_hie_yes_percent'
p110
(lp111
F0.0
aF1.0
aF0.0
ag23
(g27
S'\x00\x00\x00\x00\x00\x00\x00\x00'
p112
tp113
Rp114
aF0.0
aF0.0016
aF0.0002
aF0.1509
aF0.0001
aF0.0
aF0.0244
aF0.0
aF0.0
aF0.0
aF0.0
aF0.0
aF0.0
aF0.0
aF0.0
aF0.0
asS'ts_s_hbips_3_overall_rate_per_1000'
p115
(lp116
F0.0
aF1.0
aF0.0
ag23
(g27
S'\x00\x00\x00\x00\x00\x00\x00\x00'
p117
tp118
Rp119
aF0.0
aF0.0008
aF0.0
aF0.0
aF0.0
aF0.0
aF0.1536
aF0.0
aF0.0
aF0.0
aF0.0
aF0.0
aF0.0
aF0.0
aF0.0
aF0.0
assI12
g0
(tRp120
S'tr_tob_2_2a_measure_desc'
p121
(lp122
F0.5
aF1.0
aF0.0
ag23
(g27
S'\x00\x00\x00\x00\x00\x00\x00\x00'
p123
tp124
Rp125
aF0.0
aF0.0384
aF0.0
aF0.0
aF0.0
aF0.0
aF0.0
aF0.0
aF0.0
aF0.6876
aF0.7235
aF0.0
aF1.0
aF0.0
aF1.0
aF0.0
asS'tr_fuh_measure_description'
p126
(lp127
F0.5
aF1.0
aF0.0
ag23
(g27
S'\x00\x00\x00\x00\x00\x00\x00\x00'
p128
tp129
Rp130
aF0.0
aF0.1072
aF0.0
aF0.0
aF0.0
aF0.0
aF0.0
aF0.0
aF0.0
aF0.78
aF0.842
aF0.056
aF0.9552
aF0.0
aF0.7163
aF0.6935
asS'ts_s_fuh_measure_description'
p131
(lp132
F0.5
aF1.0
aF0.0
ag23
(g27
S'\x00\x00\x00\x00\x00\x00\x00\x00'
p133
tp134
Rp135
aF0.0
aF0.1072
aF0.0
aF0.0
aF0.0
aF0.0
aF0.0
aF0.0
aF0.0
aF0.78
aF0.842
aF0.056
aF0.9552
aF0.0
aF0.7163
aF0.6935
assI13
g0
(tRp136
S'tr_hbips_6_measure_description'
p137
(lp138
F0.5
aF1.0
aF0.0
ag23
(g27
S'\x00\x00\x00\x00\x00\x00\x00\x00'
p139
tp140
Rp141
aF0.0
aF0.0344
aF0.0
aF0.0
aF0.0
aF0.0
aF0.0
aF0.0
aF0.0
aF0.5116
aF0.5048
aF0.0
aF1.0
aF0.0
aF0.0
aF0.7214
asS'ts_s_hbips_6_measure_description'
p142
(lp143
F0.5
aF1.0
aF0.0
ag23
(g27
S'\x00\x00\x00\x00\x00\x00\x00\x00'
p144
tp145
Rp146
aF0.0
aF0.0344
aF0.0
aF0.0
aF0.0
aF0.0
aF0.0
aF0.0
aF0.0
aF0.5116
aF0.5048
aF0.0
aF1.0
aF0.0
aF0.0
aF0.7214
asS'tr_hbips_2_measure_description'
p147
(lp148
F0.5
aF1.0
aF0.0
ag23
(g27
S'\x00\x00\x00\x00\x00\x00\x00\x00'
p149
tp150
Rp151
aF0.0
aF0.0248
aF0.0
aF0.0
aF0.0
aF0.0
aF0.0
aF0.0
aF0.0
aF0.5325
aF0.5599
aF0.0
aF1.0
aF0.0
aF0.0
aF1.0
asS'ts_s_hbips_2_measure_description'
p152
(lp153
F0.5
aF1.0
aF0.0
ag23
(g27
S'\x00\x00\x00\x00\x00\x00\x00\x00'
p154
tp155
Rp156
aF0.0
aF0.0248
aF0.0
aF0.0
aF0.0
aF0.0
aF0.0
aF0.0
aF0.0
aF0.5325
aF0.5599
aF0.0
aF1.0
aF0.0
aF0.0
aF1.0
assI15
g0
(tRp157
S'tr_provider_number'
p158
(lp159
F0.0
aF1.0
aF1.0
ag23
(g27
S'\x00\x00\x00\x00\x00\x00\x00\x00'
p160
tp161
Rp162
aF1.0
aF0.0047
aF0.0005
aF0.0952
aF0.5017
aF0.0017
aF0.0344
aF0.3652
aF0.1886
aF0.0
aF0.0
aF0.0
aF0.0
aF0.0
aF0.0
aF0.0
assI16
g0
(tRp163
S'ts_st_no'
p164
(lp165
F0.0
aF1.0
aF0.0
ag23
(g27
S'\x00\x00\x00\x00\x00\x00\x00\x00'
p166
tp167
Rp168
aF1.0
aF0.0028
aF0.0022
aF0.3431
aF0.0038
aF0.0
aF0.0817
aF0.0003
aF0.0042
aF0.0
aF0.0
aF0.0
aF0.0
aF0.0
aF0.0
aF0.0
assI17
g0
(tRp169
S'tr_hbips_3_overall_num'
p170
(lp171
F0.0
aF0.02
aF0.0
ag23
(g27
S'\x00\x00\x00\x00\x00\x00\x00\x00'
p172
tp173
Rp174
aF1.0
aF0.0644
aF0.1185
aF0.7736
aF0.0004
aF0.0
aF1.0
aF0.0
aF0.0343
aF0.0
aF0.0
aF0.0
aF0.0
aF0.0
aF0.0
aF0.0
asS'tr_hbips_2_overall_num'
p175
(lp176
F0.0
aF0.02
aF0.0
ag23
(g27
S'\x00\x00\x00\x00\x00\x00\x00\x00'
p177
tp178
Rp179
aF1.0
aF0.072
aF0.131
aF0.7268
aF0.0005
aF0.0
aF0.7263
aF0.0
aF0.0343
aF0.0
aF0.0
aF0.0
aF0.0
aF0.0
aF0.0
aF0.0
assI18
g0
(tRp180
S'ts_st_name'
p181
(lp182
F0.5
aF1.0
aF0.0
ag23
(g27
S'\x00\x00\x00\x00\x00\x00\x00\x00'
p183
tp184
Rp185
aF1.0
aF0.011
aF0.0488
aF0.4123
aF0.0
aF0.0
aF0.0
aF0.0
aF0.0
aF0.7871
aF0.6211
aF0.0087
aF0.993
aF0.0
aF0.0
aF0.0
assI19
g0
(tRp186
S'tr_city'
p187
(lp188
F0.5
aF1.0
aF0.0
ag23
(g27
S'\x00\x00\x00\x00\x00\x00\x00\x00'
p189
tp190
Rp191
aF0.0
aF0.007
aF0.0241
aF0.452
aF0.0
aF0.0
aF0.0
aF0.0
aF0.0
aF0.1535
aF0.122
aF0.0
aF1.0
aF0.0
aF0.0
aF0.0031
asS'tr_country_name'
p192
(lp193
F0.5
aF1.0
aF0.0
ag23
(g27
S'\x00\x00\x00\x00\x00\x00\x00\x00'
p194
tp195
Rp196
aF0.0
aF0.0062
aF0.0263
aF0.5384
aF0.0
aF0.0
aF0.0
aF0.0
aF0.0
aF0.121
aF0.0977
aF0.0
aF1.0
aF0.0
aF0.0
aF0.0155
asS'tr_hie_response'
p197
(lp198
F0.5
aF1.0
aF0.0
ag23
(g27
S'\x00\x00\x00\x00\x00\x00\x00\x00'
p199
tp200
Rp201
aF0.0
aF0.002
aF0.0053
aF0.7487
aF0.0
aF0.0
aF0.0
aF0.0
aF0.0
aF0.0242
aF0.0191
aF0.0
aF1.0
aF0.0
aF0.0
aF0.0
asS'tr_peoc_assessed_response'
p202
(lp203
F0.5
aF1.0
aF0.0
ag23
(g27
S'\x00\x00\x00\x00\x00\x00\x00\x00'
p204
tp205
Rp206
aF0.0
aF0.0023
aF0.0047
aF0.6136
aF0.0
aF0.0
aF0.0
aF0.0
aF0.0
aF0.0209
aF0.0165
aF0.0
aF1.0
aF0.0
aF0.0
aF0.0
assI20
g0
(tRp207
S'ts_s_hie_yes_count'
p208
(lp209
F0.25
aF0.008
aF0.0
ag23
(g27
S'\x00\x00\x00\x00\x00\x00\x00\x00'
p210
tp211
Rp212
aF0.0
aF0.1442
aF0.112
aF0.5304
aF0.0
aF0.0
aF0.0568
aF0.0
aF0.0
aF0.0
aF0.0
aF0.0
aF0.0
aF0.0
aF0.0
aF0.0
asS'ts_s_ehr_certified_percentage'
p213
(lp214
F0.0
aF0.01
aF0.0
ag23
(g27
S'\x00\x00\x00\x00\x00\x00\x00\x00'
p215
tp216
Rp217
aF0.0
aF0.1569
aF0.0134
aF0.1509
aF0.0001
aF0.0
aF0.0254
aF0.0
aF0.0
aF0.0
aF0.0
aF0.0
aF0.0
aF0.0
aF0.0
aF0.0
asS'ts_s_peoc_yes_count'
p218
(lp219
F0.25
aF0.008
aF0.0
ag23
(g27
S'\x00\x00\x00\x00\x00\x00\x00\x00'
p220
tp221
Rp222
aF0.0
aF0.1692
aF0.0967
aF0.42
aF0.0
aF0.0
aF0.0571
aF0.0001
aF0.0
aF0.0
aF0.0
aF0.0
aF0.0
aF0.0
aF0.0
aF0.0
asS'ts_s_hie_no_count'
p223
(lp224
F0.25
aF0.008
aF0.0
ag23
(g27
S'\x00\x00\x00\x00\x00\x00\x00\x00'
p225
tp226
Rp227
aF0.0
aF0.1615
aF0.1074
aF0.4639
aF0.0
aF0.0
aF0.0565
aF0.0001
aF0.0
aF0.0
aF0.0
aF0.0
aF0.0
aF0.0
aF0.0
aF0.0
asS'ts_s_peoc_no_count'
p228
(lp229
F0.25
aF0.008
aF0.0
ag23
(g27
S'\x00\x00\x00\x00\x00\x00\x00\x00'
p230
tp231
Rp232
aF0.0
aF0.1327
aF0.0998
aF0.5444
aF0.0
aF0.0
aF0.0585
aF0.0
aF0.0
aF0.0
aF0.0
aF0.0
aF0.0
aF0.0
aF0.0
aF0.0
asS'ts_s_peoc_yes_percentage'
p233
(lp234
F0.0
aF0.01
aF0.0
ag23
(g27
S'\x00\x00\x00\x00\x00\x00\x00\x00'
p235
tp236
Rp237
aF0.0
aF0.1692
aF0.037
aF0.2326
aF0.0001
aF0.0
aF0.012
aF0.0018
aF0.0
aF0.0
aF0.0
aF0.0
aF0.0
aF0.0
aF0.0
aF0.0
asS'tr_hcp_percentage'
p238
(lp239
F0.0
aF0.01
aF0.0
ag23
(g27
S'\x00\x00\x00\x00\x00\x00\x00\x00'
p240
tp241
Rp242
aF0.0
aF0.164
aF0.0613
aF0.3089
aF0.0001
aF0.0
aF0.0221
aF0.0
aF0.0
aF0.0
aF0.0
aF0.0
aF0.0
aF0.0
aF0.0
aF0.0
asS'ts_s_ehr_certified_count'
p243
(lp244
F0.25
aF0.008
aF0.0
ag23
(g27
S'\x00\x00\x00\x00\x00\x00\x00\x00'
p245
tp246
Rp247
aF0.0
aF0.15
aF0.1134
aF0.5133
aF0.0
aF0.0
aF0.0531
aF0.0
aF0.0
aF0.0
aF0.0
aF0.0
aF0.0
aF0.0
aF0.0
aF0.0
asS'ts_s_ehr_paper_count'
p248
(lp249
F0.25
aF0.008
aF0.0
ag23
(g27
S'\x00\x00\x00\x00\x00\x00\x00\x00'
p250
tp251
Rp252
aF0.0
aF0.1558
aF0.112
aF0.491
aF0.0
aF0.0
aF0.0597
aF0.0
aF0.0
aF0.0
aF0.0
aF0.0
aF0.0
aF0.0
aF0.0
aF0.0
asS'ts_s_peoc_no_percentage'
p253
(lp254
F0.0
aF0.01
aF0.0
ag23
(g27
S'\x00\x00\x00\x00\x00\x00\x00\x00'
p255
tp256
Rp257
aF0.0
aF0.1462
aF0.0519
aF0.319
aF0.0
aF0.0
aF0.0378
aF0.0
aF0.0
aF0.0
aF0.0
aF0.0
aF0.0
aF0.0
aF0.0
aF0.0
asS'ts_s_ehr_non_certified_percentage'
p258
(lp259
F0.0
aF0.01
aF0.0
ag23
(g27
S'\x00\x00\x00\x00\x00\x00\x00\x00'
p260
tp261
Rp262
aF0.0
aF0.0877
aF0.0316
aF0.4141
aF0.0
aF0.0
aF0.0995
aF0.0
aF0.0
aF0.0
aF0.0
aF0.0
aF0.0
aF0.0
aF0.0
aF0.0
assI21
g0
(tRp263
S'ts_s_hbips_2_overall_den'
p264
(lp265
F0.0
aF0.02
aF0.0
ag23
(g27
S'\x00\x00\x00\x00\x00\x00\x00\x00'
p266
tp267
Rp268
aF1.0
aF0.2385
aF0.0626
aF0.1517
aF1.0
aF1.0
aF0.0749
aF1.0
aF1.0
aF0.0
aF0.0
aF0.0
aF0.0
aF0.0
aF0.0
aF0.0
asS'ts_s_hbips_3_overall_den'
p269
(lp270
F0.0
aF0.02
aF0.0
ag23
(g27
S'\x00\x00\x00\x00\x00\x00\x00\x00'
p271
tp272
Rp273
aF1.0
aF0.2385
aF0.0626
aF0.1517
aF0.9775
aF0.9539
aF0.0749
aF1.0
aF0.9887
aF0.0
aF0.0
aF0.0
aF0.0
aF0.0
aF0.0
aF0.0
assI22
g0
(tRp274
S'ts_s_hcp_denominator'
p275
(lp276
F0.0
aF0.02
aF0.0
ag23
(g27
S'\x00\x00\x00\x00\x00\x00\x00\x00'
p277
tp278
Rp279
aF1.0
aF0.2223
aF0.0517
aF0.148
aF0.3538
aF0.088
aF0.0628
aF0.2371
aF0.2616
aF0.0
aF0.0
aF0.0
aF0.0
aF0.0
aF0.0
aF0.0
asS'ts_s_hcp_numerator'
p280
(lp281
F0.0
aF0.02
aF0.0
ag23
(g27
S'\x00\x00\x00\x00\x00\x00\x00\x00'
p282
tp283
Rp284
aF1.0
aF0.22
aF0.0523
aF0.1505
aF0.3024
aF0.061
aF0.0612
aF0.1547
aF0.2147
aF0.0
aF0.0
aF0.0
aF0.0
aF0.0
aF0.0
aF0.0
assI23
g0
(tRp285
S'tr_fuh_30_denominator'
p286
(lp287
F0.0
aF0.02
aF0.0
ag23
(g27
S'\x00\x00\x00\x00\x00\x00\x00\x00'
p288
tp289
Rp290
aF1.0
aF0.0888
aF0.0965
aF0.5059
aF0.0002
aF0.0
aF0.0673
aF0.0
aF0.0003
aF0.0
aF0.0
aF0.0
aF0.0
aF0.0
aF0.0
aF0.0
asS'tr_hbips_5_overall_den'
p291
(lp292
F0.0
aF0.02
aF0.0
ag23
(g27
S'\x00\x00\x00\x00\x00\x00\x00\x00'
p293
tp294
Rp295
aF1.0
aF0.0594
aF0.0657
aF0.6244
aF0.0001
aF0.0
aF0.2004
aF0.0
aF0.0006
aF0.0
aF0.0
aF0.0
aF0.0
aF0.0
aF0.0
aF0.0
asS'tr_tob_2_numerator'
p296
(lp297
F0.0
aF0.02
aF0.0
ag23
(g27
S'\x00\x00\x00\x00\x00\x00\x00\x00'
p298
tp299
Rp300
aF1.0
aF0.0902
aF0.1058
aF0.5215
aF0.0002
aF0.0
aF0.0794
aF0.0
aF0.0005
aF0.0
aF0.0
aF0.0
aF0.0
aF0.0
aF0.0
aF0.0
asS'tr_hcp_numerator'
p301
(lp302
F0.0
aF0.02
aF0.0
ag23
(g27
S'\x00\x00\x00\x00\x00\x00\x00\x00'
p303
tp304
Rp305
aF1.0
aF0.0977
aF0.0826
aF0.4252
aF0.0005
aF0.0
aF0.2292
aF0.0
aF0.0083
aF0.0
aF0.0
aF0.0
aF0.0
aF0.0
aF0.0
aF0.0
asS'tr_tob_2_2a_denominator'
p306
(lp307
F0.0
aF0.02
aF0.0
ag23
(g27
S'\x00\x00\x00\x00\x00\x00\x00\x00'
p308
tp309
Rp310
aF1.0
aF0.0995
aF0.1069
aF0.4754
aF0.0004
aF0.0
aF0.1232
aF0.0
aF0.0036
aF0.0
aF0.0
aF0.0
aF0.0
aF0.0
aF0.0
aF0.0
asS'tr_hbips_5_overall_num'
p311
(lp312
F0.0
aF0.02
aF0.0
ag23
(g27
S'\x00\x00\x00\x00\x00\x00\x00\x00'
p313
tp314
Rp315
aF1.0
aF0.0573
aF0.0539
aF0.5852
aF0.0
aF0.0
aF0.1572
aF0.0
aF0.0002
aF0.0
aF0.0
aF0.0
aF0.0
aF0.0
aF0.0
aF0.0
asS'tr_tob_2_2a__denominator'
p316
(lp317
F0.0
aF0.02
aF0.0
ag23
(g27
S'\x00\x00\x00\x00\x00\x00\x00\x00'
p318
tp319
Rp320
aF1.0
aF0.0926
aF0.1432
aF0.5909
aF0.0003
aF0.0
aF0.1338
aF0.0
aF0.0036
aF0.0
aF0.0
aF0.0
aF0.0
aF0.0
aF0.0
aF0.0
asS'tr_tob_2a_numerator'
p321
(lp322
F0.0
aF0.02
aF0.0
ag23
(g27
S'\x00\x00\x00\x00\x00\x00\x00\x00'
p323
tp324
Rp325
aF1.0
aF0.0742
aF0.0976
aF0.6094
aF0.0001
aF0.0
aF0.1109
aF0.0
aF0.0005
aF0.0
aF0.0
aF0.0
aF0.0
aF0.0
aF0.0
aF0.0
asS'tr_fuh_7_denominator'
p326
(lp327
F0.0
aF0.02
aF0.0
ag23
(g27
S'\x00\x00\x00\x00\x00\x00\x00\x00'
p328
tp329
Rp330
aF1.0
aF0.0838
aF0.1259
aF0.6125
aF0.0002
aF0.0
aF0.0724
aF0.0
aF0.0003
aF0.0
aF0.0
aF0.0
aF0.0
aF0.0
aF0.0
aF0.0
asS'tr_hcp_denominator'
p331
(lp332
F0.0
aF0.02
aF0.0
ag23
(g27
S'\x00\x00\x00\x00\x00\x00\x00\x00'
p333
tp334
Rp335
aF1.0
aF0.1013
aF0.0887
aF0.4251
aF0.0007
aF0.0
aF0.2059
aF0.0
aF0.0095
aF0.0
aF0.0
aF0.0
aF0.0
aF0.0
aF0.0
aF0.0
asS'tr_imm_2_numerator'
p336
(lp337
F0.0
aF0.02
aF0.0
ag23
(g27
S'\x00\x00\x00\x00\x00\x00\x00\x00'
p338
tp339
Rp340
aF1.0
aF0.1047
aF0.0789
aF0.3878
aF0.0004
aF0.0
aF0.0778
aF0.0
aF0.0017
aF0.0
aF0.0
aF0.0
aF0.0
aF0.0
aF0.0
aF0.0
asS'tr_fuh_7_numerator'
p341
(lp342
F0.0
aF0.02
aF0.0
ag23
(g27
S'\x00\x00\x00\x00\x00\x00\x00\x00'
p343
tp344
Rp345
aF1.0
aF0.0704
aF0.0579
aF0.495
aF0.0001
aF0.0
aF0.0773
aF0.0
aF0.0001
aF0.0
aF0.0
aF0.0
aF0.0
aF0.0
aF0.0
aF0.0
asS'tr_fuh_30_numerator'
p346
(lp347
F0.0
aF0.02
aF0.0
ag23
(g27
S'\x00\x00\x00\x00\x00\x00\x00\x00'
p348
tp349
Rp350
aF1.0
aF0.0802
aF0.0664
aF0.4651
aF0.0001
aF0.0
aF0.0677
aF0.0
aF0.0002
aF0.0
aF0.0
aF0.0
aF0.0
aF0.0
aF0.0
aF0.0
assI24
g0
(tRp351
S'ts_s_hbips_5_measure_description'
p352
(lp353
F0.5
aF1.0
aF0.0
ag23
(g27
S'\x00\x00\x00\x00\x00\x00\x00\x00'
p354
tp355
Rp356
aF0.0
aF0.0704
aF0.0
aF0.0
aF0.0
aF0.0
aF0.0
aF0.0
aF0.0
aF0.5
aF0.3945
aF0.0
aF1.0
aF0.0
aF0.0
aF0.0
asS'ts_s_hie_measure_description'
p357
(lp358
F0.5
aF1.0
aF0.0
ag23
(g27
S'\x00\x00\x00\x00\x00\x00\x00\x00'
p359
tp360
Rp361
aF0.0
aF0.0416
aF0.0
aF0.0
aF0.0
aF0.0
aF0.0
aF0.0
aF0.0
aF0.5292
aF0.4175
aF0.0
aF1.0
aF0.0
aF0.0
aF0.0
asS'ts_s_peoc_measure_description'
p362
(lp363
F0.5
aF1.0
aF0.0
ag23
(g27
S'\x00\x00\x00\x00\x00\x00\x00\x00'
p364
tp365
Rp366
aF0.0
aF0.032
aF0.0
aF0.0
aF0.0
aF0.0
aF0.0
aF0.0
aF0.0
aF0.6876
aF0.5425
aF0.0
aF1.0
aF0.0
aF0.0
aF0.0
asS'tr_hbips_5_measure_description'
p367
(lp368
F0.5
aF1.0
aF0.0
ag23
(g27
S'\x00\x00\x00\x00\x00\x00\x00\x00'
p369
tp370
Rp371
aF0.0
aF0.0704
aF0.0
aF0.0
aF0.0
aF0.0
aF0.0
aF0.0
aF0.0
aF0.5
aF0.3945
aF0.0
aF1.0
aF0.0
aF0.0
aF0.0
asS'ts_s_sub_1_measure_description'
p372
(lp373
F0.5
aF1.0
aF0.0
ag23
(g27
S'\x00\x00\x00\x00\x00\x00\x00\x00'
p374
tp375
Rp376
aF0.0
aF0.0168
aF0.0
aF0.0
aF0.0
aF0.0
aF0.0
aF0.0
aF0.0
aF0.5237
aF0.4132
aF0.0
aF1.0
aF0.0
aF0.0
aF0.0
asS'tr_tob_1_measure_description'
p377
(lp378
F0.5
aF1.0
aF0.0
ag23
(g27
S'\x00\x00\x00\x00\x00\x00\x00\x00'
p379
tp380
Rp381
aF0.0
aF0.0168
aF0.0
aF0.0
aF0.0
aF0.0
aF0.0
aF0.0
aF0.0
aF0.5237
aF0.4132
aF0.0
aF1.0
aF0.0
aF0.0
aF0.0
asS'tr_hbips_7_measure_description'
p382
(lp383
F0.5
aF1.0
aF0.0
ag23
(g27
S'\x00\x00\x00\x00\x00\x00\x00\x00'
p384
tp385
Rp386
aF0.0
aF0.0776
aF0.0
aF0.0
aF0.0
aF0.0
aF0.0
aF0.0
aF0.0
aF0.7371
aF0.6263
aF0.0
aF1.0
aF0.0
aF0.0
aF0.3189
asS'ts_s_hcp_measure_description'
p387
(lp388
F0.5
aF1.0
aF0.0
ag23
(g27
S'\x00\x00\x00\x00\x00\x00\x00\x00'
p389
tp390
Rp391
aF0.0
aF0.0336
aF0.0
aF0.0
aF0.0
aF0.0
aF0.0
aF0.0
aF0.0
aF0.3927
aF0.3099
aF0.0
aF1.0
aF0.0
aF0.0
aF0.0
asS'tr_ehr_use_response'
p392
(lp393
F0.5
aF1.0
aF0.0
ag23
(g27
S'\x00\x00\x00\x00\x00\x00\x00\x00'
p394
tp395
Rp396
aF0.0
aF0.0168
aF0.0276
aF0.2019
aF0.0
aF0.0
aF0.0
aF0.0
aF0.0
aF0.6744
aF0.5369
aF0.0
aF1.0
aF0.0
aF0.0
aF0.0341
asS'ts_s_imm_2_measure_description'
p397
(lp398
F0.5
aF1.0
aF0.0
ag23
(g27
S'\x00\x00\x00\x00\x00\x00\x00\x00'
p399
tp400
Rp401
aF0.0
aF0.0176
aF0.0
aF0.0
aF0.0
aF0.0
aF0.0
aF0.0
aF0.0
aF0.2503
aF0.1975
aF0.0
aF1.0
aF0.0
aF0.0
aF0.0
asS'tr_peoc_measure_description'
p402
(lp403
F0.5
aF1.0
aF0.0
ag23
(g27
S'\x00\x00\x00\x00\x00\x00\x00\x00'
p404
tp405
Rp406
aF0.0
aF0.032
aF0.0
aF0.0
aF0.0
aF0.0
aF0.0
aF0.0
aF0.0
aF0.6876
aF0.5425
aF0.0
aF1.0
aF0.0
aF0.0
aF0.0
asS'ts_s_ehr_use_measure_description'
p407
(lp408
F0.5
aF1.0
aF0.0
ag23
(g27
S'\x00\x00\x00\x00\x00\x00\x00\x00'
p409
tp410
Rp411
aF0.0
aF0.0336
aF0.0
aF0.0
aF0.0
aF0.0
aF0.0
aF0.0
aF0.0
aF0.9169
aF0.7235
aF0.0
aF1.0
aF0.0
aF0.0
aF0.0
asS'ts_s_hbips_7_measure_description'
p412
(lp413
F0.5
aF1.0
aF0.0
ag23
(g27
S'\x00\x00\x00\x00\x00\x00\x00\x00'
p414
tp415
Rp416
aF0.0
aF0.0776
aF0.0
aF0.0
aF0.0
aF0.0
aF0.0
aF0.0
aF0.0
aF0.7371
aF0.6263
aF0.0
aF1.0
aF0.0
aF0.0
aF0.3189
asS'tr_ehr_use_measure_description'
p417
(lp418
F0.5
aF1.0
aF0.0
ag23
(g27
S'\x00\x00\x00\x00\x00\x00\x00\x00'
p419
tp420
Rp421
aF0.0
aF0.0272
aF0.0
aF0.0
aF0.0
aF0.0
aF0.0
aF0.0
aF0.0
aF0.8091
aF0.6385
aF0.0
aF1.0
aF0.0
aF0.0
aF0.0
asS'ts_tob_2_2a_measure_desc'
p422
(lp423
F0.5
aF1.0
aF0.0
ag23
(g27
S'\x00\x00\x00\x00\x00\x00\x00\x00'
p424
tp425
Rp426
aF0.0
aF0.0339
aF0.0276
aF0.1003
aF0.0
aF0.0
aF0.0
aF0.0
aF0.0
aF0.6744
aF0.5716
aF0.0
aF1.0
aF0.0
aF0.2163
aF0.0
asS'tr_hcp_measure_description'
p427
(lp428
F0.5
aF1.0
aF0.0
ag23
(g27
S'\x00\x00\x00\x00\x00\x00\x00\x00'
p429
tp430
Rp431
aF0.0
aF0.0336
aF0.0
aF0.0
aF0.0
aF0.0
aF0.0
aF0.0
aF0.0
aF0.3927
aF0.3099
aF0.0
aF1.0
aF0.0
aF0.0
aF0.0
asS'ts_s_hbips_3_measure_description'
p432
(lp433
F0.5
aF1.0
aF0.0
ag23
(g27
S'\x00\x00\x00\x00\x00\x00\x00\x00'
p434
tp435
Rp436
aF0.0
aF0.0144
aF0.0
aF0.0
aF0.0
aF0.0
aF0.0
aF0.0
aF0.0
aF0.6111
aF0.4822
aF0.0
aF1.0
aF0.0
aF0.0
aF0.0
asS'tr_hbips_3_measure_description'
p437
(lp438
F0.5
aF1.0
aF0.0
ag23
(g27
S'\x00\x00\x00\x00\x00\x00\x00\x00'
p439
tp440
Rp441
aF0.0
aF0.0144
aF0.0
aF0.0
aF0.0
aF0.0
aF0.0
aF0.0
aF0.0
aF0.6111
aF0.4822
aF0.0
aF1.0
aF0.0
aF0.0
aF0.0
asS'tr_sub_1_measure_description'
p442
(lp443
F0.5
aF1.0
aF0.0
ag23
(g27
S'\x00\x00\x00\x00\x00\x00\x00\x00'
p444
tp445
Rp446
aF0.0
aF0.0168
aF0.0
aF0.0
aF0.0
aF0.0
aF0.0
aF0.0
aF0.0
aF0.5237
aF0.4132
aF0.0
aF1.0
aF0.0
aF0.0
aF0.0
asS'tr_hie_measure_description'
p447
(lp448
F0.5
aF1.0
aF0.0
ag23
(g27
S'\x00\x00\x00\x00\x00\x00\x00\x00'
p449
tp450
Rp451
aF0.0
aF0.0416
aF0.0
aF0.0
aF0.0
aF0.0
aF0.0
aF0.0
aF0.0
aF0.5292
aF0.4175
aF0.0
aF1.0
aF0.0
aF0.0
aF0.0
asS'ts_s_tob_1_measure_description'
p452
(lp453
F0.5
aF1.0
aF0.0
ag23
(g27
S'\x00\x00\x00\x00\x00\x00\x00\x00'
p454
tp455
Rp456
aF0.0
aF0.0168
aF0.0
aF0.0
aF0.0
aF0.0
aF0.0
aF0.0
aF0.0
aF0.5237
aF0.4132
aF0.0
aF1.0
aF0.0
aF0.0
aF0.0
asS'tr_imm_2_measure_description'
p457
(lp458
F0.5
aF1.0
aF0.0
ag23
(g27
S'\x00\x00\x00\x00\x00\x00\x00\x00'
p459
tp460
Rp461
aF0.0
aF0.0176
aF0.0
aF0.0
aF0.0
aF0.0
aF0.0
aF0.0
aF0.0
aF0.2503
aF0.1975
aF0.0
aF1.0
aF0.0
aF0.0
aF0.0
assI25
g0
(tRp462
S'tr_state'
p463
(lp464
F0.5
aF0.004
aF0.0
ag23
(g27
S'\x00\x00\x00\x00\x00\x00\x00\x00'
p465
tp466
Rp467
aF0.0
aF0.4
aF0.0
aF0.0
aF0.0
aF0.0
aF0.0
aF0.0
aF0.0
aF0.0
aF0.0
aF0.0
aF1.0
aF0.0
aF0.0
aF0.0
asS'tr_hospital_name'
p468
(lp469
F0.5
aF1.0
aF0.0
ag23
(g27
S'\x00\x00\x00\x00\x00\x00\x00\x00'
p470
tp471
Rp472
aF0.0
aF0.0227
aF0.2526
aF0.4526
aF0.0
aF0.0
aF0.0
aF0.0
aF0.0
aF0.5501
aF0.4588
aF0.0001
aF0.9999
aF0.0015
aF0.0048
aF0.0619
assI26
g0
(tRp473
S'tr_fuh_30_footnote'
p474
(lp475
F0.25
aF0.008
aF0.0
ag23
(g27
S'\x00\x00\x00\x00\x00\x00\x00\x00'
p476
tp477
Rp478
aF0.0
aF0.346
aF0.6028
aF0.5132
aF0.0
aF0.0
aF0.1789
aF0.0
aF0.0
aF0.0
aF0.0
aF0.0
aF0.0
aF0.0
aF0.0
aF0.0
asS'tr_hbips_5_overall_footnote'
p479
(lp480
F0.25
aF0.008
aF0.0
ag23
(g27
S'\x00\x00\x00\x00\x00\x00\x00\x00'
p481
tp482
Rp483
aF0.0
aF0.2286
aF1.0
aF1.0
aF0.0
aF0.0
aF0.1019
aF0.0
aF0.0
aF0.0
aF0.0
aF0.0
aF0.0
aF0.0
aF0.0
aF0.0
asS'tr_tob_2a_footnote'
p484
(lp485
F0.25
aF0.008
aF0.0
ag23
(g27
S'\x00\x00\x00\x00\x00\x00\x00\x00'
p486
tp487
Rp488
aF0.0
aF0.3182
aF0.8095
aF0.6464
aF0.0
aF0.0
aF0.1634
aF0.0
aF0.0
aF0.0
aF0.0
aF0.0
aF0.0
aF0.0
aF0.0
aF0.0
asS'tr_fuh_7_footnote'
p489
(lp490
F0.25
aF0.008
aF0.0
ag23
(g27
S'\x00\x00\x00\x00\x00\x00\x00\x00'
p491
tp492
Rp493
aF0.0
aF0.3088
aF0.8641
aF0.6884
aF0.0
aF0.0
aF0.1365
aF0.0
aF0.0
aF0.0
aF0.0
aF0.0
aF0.0
aF0.0
aF0.0
aF0.0
asS'tr_tob_2_footnote'
p494
(lp495
F0.25
aF0.008
aF0.0
ag23
(g27
S'\x00\x00\x00\x00\x00\x00\x00\x00'
p496
tp497
Rp498
aF0.0
aF0.3536
aF0.5333
aF0.4722
aF0.0
aF0.0
aF0.2113
aF0.0
aF0.0
aF0.0
aF0.0
aF0.0
aF0.0
aF0.0
aF0.0
aF0.0
assI28
g0
(tRp499
S'ts_s_hbips_7_overall_den'
p500
(lp501
F0.0
aF0.02
aF0.0
ag23
(g27
S'\x00\x00\x00\x00\x00\x00\x00\x00'
p502
tp503
Rp504
aF1.0
aF0.1808
aF0.0523
aF0.183
aF0.0334
aF0.0008
aF0.0616
aF0.0305
aF0.0196
aF0.0
aF0.0
aF0.0
aF0.0
aF0.0
aF0.0
aF0.0
asS'ts_s_tob_1_denominator'
p505
(lp506
F0.0
aF0.02
aF0.0
ag23
(g27
S'\x00\x00\x00\x00\x00\x00\x00\x00'
p507
tp508
Rp509
aF1.0
aF0.1762
aF0.0577
aF0.1971
aF0.0262
aF0.0005
aF0.0648
aF0.0149
aF0.0198
aF0.0
aF0.0
aF0.0
aF0.0
aF0.0
aF0.0
aF0.0
asS'ts_s_sub_1_numerator'
p510
(lp511
F0.0
aF0.02
aF0.0
ag23
(g27
S'\x00\x00\x00\x00\x00\x00\x00\x00'
p512
tp513
Rp514
aF1.0
aF0.1731
aF0.0679
aF0.2176
aF0.0221
aF0.0003
aF0.06
aF0.0125
aF0.012
aF0.0
aF0.0
aF0.0
aF0.0
aF0.0
aF0.0
aF0.0
asS'ts_s_tob_1_numerator'
p515
(lp516
F0.0
aF0.02
aF0.0
ag23
(g27
S'\x00\x00\x00\x00\x00\x00\x00\x00'
p517
tp518
Rp519
aF1.0
aF0.1754
aF0.057
aF0.1967
aF0.024
aF0.0004
aF0.0654
aF0.0122
aF0.0186
aF0.0
aF0.0
aF0.0
aF0.0
aF0.0
aF0.0
aF0.0
asS'ts_s_tob_2_2a__denominator'
p520
(lp521
F0.0
aF0.02
aF0.0
ag23
(g27
S'\x00\x00\x00\x00\x00\x00\x00\x00'
p522
tp523
Rp524
aF1.0
aF0.1623
aF0.0657
aF0.2284
aF0.012
aF0.0001
aF0.0648
aF0.0048
aF0.0085
aF0.0
aF0.0
aF0.0
aF0.0
aF0.0
aF0.0
aF0.0
asS'ts_s_hbips_7_overall_num'
p525
(lp526
F0.0
aF0.02
aF0.0
ag23
(g27
S'\x00\x00\x00\x00\x00\x00\x00\x00'
p527
tp528
Rp529
aF1.0
aF0.18
aF0.0523
aF0.1839
aF0.0263
aF0.0004
aF0.0596
aF0.0279
aF0.0153
aF0.0
aF0.0
aF0.0
aF0.0
aF0.0
aF0.0
aF0.0
asS'ts_s_fuh_30_denominator'
p530
(lp531
F0.0
aF0.02
aF0.0
ag23
(g27
S'\x00\x00\x00\x00\x00\x00\x00\x00'
p532
tp533
Rp534
aF1.0
aF0.1531
aF0.0608
aF0.233
aF0.0069
aF0.0
aF0.0646
aF0.0022
aF0.0042
aF0.0
aF0.0
aF0.0
aF0.0
aF0.0
aF0.0
aF0.0
asS'ts_s_tob_2_2a_denominator'
p535
(lp536
F0.0
aF0.02
aF0.0
ag23
(g27
S'\x00\x00\x00\x00\x00\x00\x00\x00'
p537
tp538
Rp539
aF1.0
aF0.1623
aF0.0657
aF0.2284
aF0.012
aF0.0001
aF0.0648
aF0.0048
aF0.0085
aF0.0
aF0.0
aF0.0
aF0.0
aF0.0
aF0.0
aF0.0
asS'ts_s_sub_1_denominator'
p540
(lp541
F0.0
aF0.02
aF0.0
ag23
(g27
S'\x00\x00\x00\x00\x00\x00\x00\x00'
p542
tp543
Rp544
aF1.0
aF0.1754
aF0.0639
aF0.2084
aF0.0253
aF0.0004
aF0.0602
aF0.015
aF0.0139
aF0.0
aF0.0
aF0.0
aF0.0
aF0.0
aF0.0
aF0.0
asS'ts_s_imm_2_denominator'
p545
(lp546
F0.0
aF0.02
aF0.0
ag23
(g27
S'\x00\x00\x00\x00\x00\x00\x00\x00'
p547
tp548
Rp549
aF1.0
aF0.17
aF0.0619
aF0.2118
aF0.018
aF0.0003
aF0.071
aF0.0174
aF0.0179
aF0.0
aF0.0
aF0.0
aF0.0
aF0.0
aF0.0
aF0.0
asS'ts_s_fuh_7_denominator'
p550
(lp551
F0.0
aF0.02
aF0.0
ag23
(g27
S'\x00\x00\x00\x00\x00\x00\x00\x00'
p552
tp553
Rp554
aF1.0
aF0.1531
aF0.0608
aF0.233
aF0.0069
aF0.0
aF0.0646
aF0.0022
aF0.0042
aF0.0
aF0.0
aF0.0
aF0.0
aF0.0
aF0.0
aF0.0
asS'ts_s_hbips_6_overall_num'
p555
(lp556
F0.0
aF0.02
aF0.0
ag23
(g27
S'\x00\x00\x00\x00\x00\x00\x00\x00'
p557
tp558
Rp559
aF1.0
aF0.1808
aF0.0523
aF0.183
aF0.0283
aF0.0005
aF0.0596
aF0.0292
aF0.0165
aF0.0
aF0.0
aF0.0
aF0.0
aF0.0
aF0.0
aF0.0
asS'ts_s_imm_2_numerator'
p560
(lp561
F0.0
aF0.02
aF0.0
ag23
(g27
S'\x00\x00\x00\x00\x00\x00\x00\x00'
p562
tp563
Rp564
aF1.0
aF0.1631
aF0.0688
aF0.2324
aF0.0128
aF0.0001
aF0.0604
aF0.0107
aF0.0076
aF0.0
aF0.0
aF0.0
aF0.0
aF0.0
aF0.0
aF0.0
asS'ts_s_hbips_6_overall_den'
p565
(lp566
F0.0
aF0.02
aF0.0
ag23
(g27
S'\x00\x00\x00\x00\x00\x00\x00\x00'
p567
tp568
Rp569
aF1.0
aF0.1808
aF0.0523
aF0.183
aF0.0334
aF0.0008
aF0.0616
aF0.0305
aF0.0196
aF0.0
aF0.0
aF0.0
aF0.0
aF0.0
aF0.0
aF0.0
assI29
g0
(tRp570
S'ts_s_fuh_30_numerator'
p571
(lp572
F0.0
aF0.02
aF0.0
ag23
(g27
S'\x00\x00\x00\x00\x00\x00\x00\x00'
p573
tp574
Rp575
aF1.0
aF0.1408
aF0.0593
aF0.2501
aF0.0037
aF0.0
aF0.064
aF0.0013
aF0.0021
aF0.0
aF0.0
aF0.0
aF0.0
aF0.0
aF0.0
aF0.0
asS'tr_hbips_6_overall_num'
p576
(lp577
F0.0
aF0.02
aF0.0
ag23
(g27
S'\x00\x00\x00\x00\x00\x00\x00\x00'
p578
tp579
Rp580
aF1.0
aF0.1186
aF0.0481
aF0.2675
aF0.0009
aF0.0
aF0.0653
aF0.0
aF0.0024
aF0.0
aF0.0
aF0.0
aF0.0
aF0.0
aF0.0
aF0.0
asS'tr_tob_1_numerator'
p581
(lp582
F0.0
aF0.02
aF0.0
ag23
(g27
S'\x00\x00\x00\x00\x00\x00\x00\x00'
p583
tp584
Rp585
aF1.0
aF0.1144
aF0.047
aF0.2743
aF0.0008
aF0.0
aF0.107
aF0.0
aF0.0069
aF0.0
aF0.0
aF0.0
aF0.0
aF0.0
aF0.0
aF0.0
asS'tr_hbips_7_overall_num'
p586
(lp587
F0.0
aF0.02
aF0.0
ag23
(g27
S'\x00\x00\x00\x00\x00\x00\x00\x00'
p588
tp589
Rp590
aF1.0
aF0.1171
aF0.0526
aF0.2835
aF0.0008
aF0.0
aF0.0654
aF0.0
aF0.002
aF0.0
aF0.0
aF0.0
aF0.0
aF0.0
aF0.0
aF0.0
asS'tr_hbips_3_overall_den'
p591
(lp592
F0.0
aF0.02
aF0.0
ag23
(g27
S'\x00\x00\x00\x00\x00\x00\x00\x00'
p593
tp594
Rp595
aF1.0
aF0.173
aF0.1027
aF0.268
aF0.0309
aF0.0001
aF0.1164
aF0.0
aF0.1575
aF0.0
aF0.0
aF0.0
aF0.0
aF0.0
aF0.0
aF0.0
asS'tr_imm_2_denominator'
p596
(lp597
F0.0
aF0.02
aF0.0
ag23
(g27
S'\x00\x00\x00\x00\x00\x00\x00\x00'
p598
tp599
Rp600
aF1.0
aF0.1105
aF0.0622
aF0.3264
aF0.0006
aF0.0
aF0.1679
aF0.0
aF0.0085
aF0.0
aF0.0
aF0.0
aF0.0
aF0.0
aF0.0
aF0.0
asS'ts_s_hbips_3_overall_num'
p601
(lp602
F0.0
aF0.02
aF0.0
ag23
(g27
S'\x00\x00\x00\x00\x00\x00\x00\x00'
p603
tp604
Rp605
aF1.0
aF0.1523
aF0.1049
aF0.3076
aF0.0114
aF0.0007
aF0.1789
aF0.0024
aF0.0353
aF0.0
aF0.0
aF0.0
aF0.0
aF0.0
aF0.0
aF0.0
asS'tr_hbips_2_overall_den'
p606
(lp607
F0.0
aF0.02
aF0.0
ag23
(g27
S'\x00\x00\x00\x00\x00\x00\x00\x00'
p608
tp609
Rp610
aF1.0
aF0.1734
aF0.0987
aF0.262
aF0.0316
aF0.0001
aF0.1182
aF0.0
aF0.1575
aF0.0
aF0.0
aF0.0
aF0.0
aF0.0
aF0.0
aF0.0
asS'tr_hbips_7_overall_den'
p611
(lp612
F0.0
aF0.02
aF0.0
ag23
(g27
S'\x00\x00\x00\x00\x00\x00\x00\x00'
p613
tp614
Rp615
aF1.0
aF0.1206
aF0.0474
aF0.2609
aF0.001
aF0.0
aF0.1289
aF0.0
aF0.0116
aF0.0
aF0.0
aF0.0
aF0.0
aF0.0
aF0.0
aF0.0
asS'ts_s_fuh_7_numerator'
p616
(lp617
F0.0
aF0.02
aF0.0
ag23
(g27
S'\x00\x00\x00\x00\x00\x00\x00\x00'
p618
tp619
Rp620
aF1.0
aF0.13
aF0.069
aF0.292
aF0.0021
aF0.0
aF0.0674
aF0.0006
aF0.0014
aF0.0
aF0.0
aF0.0
aF0.0
aF0.0
aF0.0
aF0.0
asS'tr_hbips_6_overall_den'
p621
(lp622
F0.0
aF0.02
aF0.0
ag23
(g27
S'\x00\x00\x00\x00\x00\x00\x00\x00'
p623
tp624
Rp625
aF1.0
aF0.121
aF0.0437
aF0.25
aF0.0011
aF0.0
aF0.1284
aF0.0
aF0.0116
aF0.0
aF0.0
aF0.0
aF0.0
aF0.0
aF0.0
aF0.0
asS'ts_s_hbips_5_overall_num'
p626
(lp627
F0.0
aF0.02
aF0.0
ag23
(g27
S'\x00\x00\x00\x00\x00\x00\x00\x00'
p628
tp629
Rp630
aF1.0
aF0.1192
aF0.0802
aF0.3434
aF0.0012
aF0.0
aF0.0719
aF0.0001
aF0.001
aF0.0
aF0.0
aF0.0
aF0.0
aF0.0
aF0.0
aF0.0
asS'tr_tob_1_denominator'
p631
(lp632
F0.0
aF0.02
aF0.0
ag23
(g27
S'\x00\x00\x00\x00\x00\x00\x00\x00'
p633
tp634
Rp635
aF1.0
aF0.1158
aF0.0432
aF0.2597
aF0.0008
aF0.0
aF0.1029
aF0.0
aF0.007
aF0.0
aF0.0
aF0.0
aF0.0
aF0.0
aF0.0
aF0.0
asS'ts_s_hbips_2_overall_num'
p636
(lp637
F0.0
aF0.02
aF0.0
ag23
(g27
S'\x00\x00\x00\x00\x00\x00\x00\x00'
p638
tp639
Rp640
aF1.0
aF0.1554
aF0.1372
aF0.3447
aF0.0164
aF0.0008
aF0.133
aF0.0019
aF0.0356
aF0.0
aF0.0
aF0.0
aF0.0
aF0.0
aF0.0
aF0.0
asS'tr_sub_1_denominator'
p641
(lp642
F0.0
aF0.02
aF0.0
ag23
(g27
S'\x00\x00\x00\x00\x00\x00\x00\x00'
p643
tp644
Rp645
aF1.0
aF0.1148
aF0.0494
aF0.2797
aF0.0008
aF0.0
aF0.0595
aF0.0
aF0.0016
aF0.0
aF0.0
aF0.0
aF0.0
aF0.0
aF0.0
aF0.0
asS'ts_s_hbips_5_overall_den'
p646
(lp647
F0.0
aF0.02
aF0.0
ag23
(g27
S'\x00\x00\x00\x00\x00\x00\x00\x00'
p648
tp649
Rp650
aF1.0
aF0.1285
aF0.0791
aF0.3166
aF0.002
aF0.0
aF0.077
aF0.0005
aF0.0018
aF0.0
aF0.0
aF0.0
aF0.0
aF0.0
aF0.0
aF0.0
asS'tr_sub_1_numerator'
p651
(lp652
F0.0
aF0.02
aF0.0
ag23
(g27
S'\x00\x00\x00\x00\x00\x00\x00\x00'
p653
tp654
Rp655
aF1.0
aF0.112
aF0.0613
aF0.3196
aF0.0007
aF0.0
aF0.0575
aF0.0
aF0.0015
aF0.0
aF0.0
aF0.0
aF0.0
aF0.0
aF0.0
aF0.0
asS'ts_s_tob_2_numerator'
p656
(lp657
F0.0
aF0.02
aF0.0
ag23
(g27
S'\x00\x00\x00\x00\x00\x00\x00\x00'
p658
tp659
Rp660
aF1.0
aF0.1531
aF0.0748
aF0.2584
aF0.0074
aF0.0
aF0.0606
aF0.0034
aF0.0037
aF0.0
aF0.0
aF0.0
aF0.0
aF0.0
aF0.0
aF0.0
asS'ts_s_tob_2a_numerator'
p661
(lp662
F0.0
aF0.02
aF0.0
ag23
(g27
S'\x00\x00\x00\x00\x00\x00\x00\x00'
p663
tp664
Rp665
aF1.0
aF0.1385
aF0.066
aF0.2684
aF0.0037
aF0.0
aF0.0603
aF0.0019
aF0.0021
aF0.0
aF0.0
aF0.0
aF0.0
aF0.0
aF0.0
aF0.0
assI30
g0
(tRp666
S'tr_address'
p667
(lp668
F0.5
aF1.0
aF0.0
ag23
(g27
S'\x00\x00\x00\x00\x00\x00\x00\x00'
p669
tp670
Rp671
aF0.0
aF0.0164
aF0.1083
aF0.4103
aF0.0
aF0.0
aF0.0
aF0.0
aF0.0
aF1.0
aF0.8086
aF0.2382
aF0.8094
aF0.0005
aF0.0048
aF0.0186
assI31
g0
(tRp672
S'tr_tob_1_percentage'
p673
(lp674
F0.0
aF0.01
aF0.0
ag23
(g27
S'\x00\x00\x00\x00\x00\x00\x00\x00'
p675
tp676
Rp677
aF0.0
aF0.08
aF0.0
aF0.0
aF0.0
aF0.0
aF0.0157
aF0.0
aF0.0
aF0.0
aF0.0
aF0.0
aF0.0
aF0.0
aF0.0
aF0.0
asS'tr_imm_2_percentage'
p678
(lp679
F0.0
aF0.01
aF0.0
ag23
(g27
S'\x00\x00\x00\x00\x00\x00\x00\x00'
p680
tp681
Rp682
aF0.0
aF0.08
aF0.0
aF0.0
aF0.0
aF0.0
aF0.0292
aF0.0
aF0.0
aF0.0
aF0.0
aF0.0
aF0.0
aF0.0
aF0.0
aF0.0
asS'ts_s_tob_2a_percentage'
p683
(lp684
F0.0
aF0.01
aF0.0
ag23
(g27
S'\x00\x00\x00\x00\x00\x00\x00\x00'
p685
tp686
Rp687
aF0.0
aF0.16
aF0.0
aF0.0
aF0.0001
aF0.0
aF0.0215
aF0.0004
aF0.0
aF0.0
aF0.0
aF0.0
aF0.0
aF0.0
aF0.0
aF0.0
asS'tr_fuh_30_percentage'
p688
(lp689
F0.0
aF0.01
aF0.0
ag23
(g27
S'\x00\x00\x00\x00\x00\x00\x00\x00'
p690
tp691
Rp692
aF0.0
aF0.08
aF0.0
aF0.0
aF0.0
aF0.0
aF0.0558
aF0.0
aF0.0
aF0.0
aF0.0
aF0.0
aF0.0
aF0.0
aF0.0
aF0.0
asS'ts_s_sub_1_percentage'
p693
(lp694
F0.0
aF0.01
aF0.0
ag23
(g27
S'\x00\x00\x00\x00\x00\x00\x00\x00'
p695
tp696
Rp697
aF0.0
aF0.16
aF0.0
aF0.0
aF0.0002
aF0.0
aF0.0066
aF0.002
aF0.0
aF0.0
aF0.0
aF0.0
aF0.0
aF0.0
aF0.0
aF0.0
asS'ts_s_ehr_paper_percentage'
p698
(lp699
F0.0
aF0.01
aF0.0
ag23
(g27
S'\x00\x00\x00\x00\x00\x00\x00\x00'
p700
tp701
Rp702
aF0.0
aF0.1615
aF0.0069
aF0.1047
aF0.0001
aF0.0
aF0.0156
aF0.0007
aF0.0
aF0.0
aF0.0
aF0.0
aF0.0
aF0.0
aF0.0
aF0.0
asS'ts_s_hbips_5_overall_percentage_of_total'
p703
(lp704
F0.0
aF0.01
aF0.0
ag23
(g27
S'\x00\x00\x00\x00\x00\x00\x00\x00'
p705
tp706
Rp707
aF0.0
aF0.16
aF0.0
aF0.0
aF0.0001
aF0.0
aF0.0164
aF0.0008
aF0.0
aF0.0
aF0.0
aF0.0
aF0.0
aF0.0
aF0.0
aF0.0
asS'tr_tob_2_percentage'
p708
(lp709
F0.0
aF0.01
aF0.0
ag23
(g27
S'\x00\x00\x00\x00\x00\x00\x00\x00'
p710
tp711
Rp712
aF0.0
aF0.08
aF0.0
aF0.0
aF0.0
aF0.0
aF0.0473
aF0.0
aF0.0
aF0.0
aF0.0
aF0.0
aF0.0
aF0.0
aF0.0
aF0.0
asS'tr_hbips_6_overall_percentage_of_total'
p713
(lp714
F0.0
aF0.01
aF0.0
ag23
(g27
S'\x00\x00\x00\x00\x00\x00\x00\x00'
p715
tp716
Rp717
aF0.0
aF0.08
aF0.0
aF0.0
aF0.0
aF0.0
aF0.0175
aF0.0
aF0.0
aF0.0
aF0.0
aF0.0
aF0.0
aF0.0
aF0.0
aF0.0
asS'ts_s_tob_1_percentage'
p718
(lp719
F0.0
aF0.01
aF0.0
ag23
(g27
S'\x00\x00\x00\x00\x00\x00\x00\x00'
p720
tp721
Rp722
aF0.0
aF0.16
aF0.0
aF0.0
aF0.0002
aF0.0
aF0.0052
aF0.0023
aF0.0
aF0.0
aF0.0
aF0.0
aF0.0
aF0.0
aF0.0
aF0.0
asS'tr_zip_code'
p723
(lp724
F0.25
aF0.008
aF0.0
ag23
(g27
S'\x00\x00\x00\x00\x00\x00\x00\x00'
p725
tp726
Rp727
aF0.0
aF0.49
aF0.0446
aF0.0986
aF0.0913
aF0.0001
aF0.0358
aF0.0227
aF0.0281
aF0.0
aF0.0
aF0.0
aF0.0
aF0.0
aF0.0
aF0.0
asS'ts_s_hcp_percentage'
p728
(lp729
F0.0
aF0.01
aF0.0
ag23
(g27
S'\x00\x00\x00\x00\x00\x00\x00\x00'
p730
tp731
Rp732
aF0.0
aF0.16
aF0.0
aF0.0
aF0.0002
aF0.0
aF0.0051
aF0.0023
aF0.0
aF0.0
aF0.0
aF0.0
aF0.0
aF0.0
aF0.0
aF0.0
asS'tr_sub_1_percentage'
p733
(lp734
F0.0
aF0.01
aF0.0
ag23
(g27
S'\x00\x00\x00\x00\x00\x00\x00\x00'
p735
tp736
Rp737
aF0.0
aF0.08
aF0.0
aF0.0
aF0.0
aF0.0
aF0.0208
aF0.0
aF0.0
aF0.0
aF0.0
aF0.0
aF0.0
aF0.0
aF0.0
aF0.0
asS'ts_s_imm_2_percentage'
p738
(lp739
F0.0
aF0.01
aF0.0
ag23
(g27
S'\x00\x00\x00\x00\x00\x00\x00\x00'
p740
tp741
Rp742
aF0.0
aF0.16
aF0.0
aF0.0
aF0.0001
aF0.0
aF0.0105
aF0.0012
aF0.0
aF0.0
aF0.0
aF0.0
aF0.0
aF0.0
aF0.0
aF0.0
asS'ts_s_fuh_7_percentage'
p743
(lp744
F0.0
aF0.01
aF0.0
ag23
(g27
S'\x00\x00\x00\x00\x00\x00\x00\x00'
p745
tp746
Rp747
aF0.0
aF0.16
aF0.0
aF0.0
aF0.0001
aF0.0
aF0.0155
aF0.0006
aF0.0
aF0.0
aF0.0
aF0.0
aF0.0
aF0.0
aF0.0
aF0.0
asS'ts_s_tob_2_percentage'
p748
(lp749
F0.0
aF0.01
aF0.0
ag23
(g27
S'\x00\x00\x00\x00\x00\x00\x00\x00'
p750
tp751
Rp752
aF0.0
aF0.16
aF0.0
aF0.0
aF0.0001
aF0.0
aF0.0147
aF0.0007
aF0.0
aF0.0
aF0.0
aF0.0
aF0.0
aF0.0
aF0.0
aF0.0
asS'ts_s_hbips_6_overall_percentage_of_total'
p753
(lp754
F0.0
aF0.01
aF0.0
ag23
(g27
S'\x00\x00\x00\x00\x00\x00\x00\x00'
p755
tp756
Rp757
aF0.0
aF0.16
aF0.0
aF0.0
aF0.0002
aF0.0
aF0.0071
aF0.0014
aF0.0
aF0.0
aF0.0
aF0.0
aF0.0
aF0.0
aF0.0
aF0.0
asS'ts_s_fuh_30_percentage'
p758
(lp759
F0.0
aF0.01
aF0.0
ag23
(g27
S'\x00\x00\x00\x00\x00\x00\x00\x00'
p760
tp761
Rp762
aF0.0
aF0.16
aF0.0
aF0.0
aF0.0001
aF0.0
aF0.0109
aF0.0009
aF0.0
aF0.0
aF0.0
aF0.0
aF0.0
aF0.0
aF0.0
aF0.0
asS'ts_s_hbips_7_overall_percentage_of_total'
p763
(lp764
F0.0
aF0.01
aF0.0
ag23
(g27
S'\x00\x00\x00\x00\x00\x00\x00\x00'
p765
tp766
Rp767
aF0.0
aF0.16
aF0.0
aF0.0
aF0.0002
aF0.0
aF0.0085
aF0.0013
aF0.0
aF0.0
aF0.0
aF0.0
aF0.0
aF0.0
aF0.0
aF0.0
asS'tr_hbips_7_overall_percentage_of_total'
p768
(lp769
F0.0
aF0.01
aF0.0
ag23
(g27
S'\x00\x00\x00\x00\x00\x00\x00\x00'
p770
tp771
Rp772
aF0.0
aF0.08
aF0.0
aF0.0
aF0.0
aF0.0
aF0.0218
aF0.0
aF0.0
aF0.0
aF0.0
aF0.0
aF0.0
aF0.0
aF0.0
aF0.0
assI32
g0
(tRp773
S'tr_hbips_2_overall_footnote'
p774
(lp775
F0.25
aF0.008
aF0.0
ag23
(g27
S'\x00\x00\x00\x00\x00\x00\x00\x00'
p776
tp777
Rp778
aF0.0
aF0.3944
aF0.0755
aF0.1594
aF0.0
aF0.0
aF0.4502
aF0.0
aF0.0
aF0.0
aF0.0
aF0.0
aF0.0
aF0.0
aF0.0
aF0.0
asS'tr_hie_footnote'
p779
(lp780
F0.25
aF0.008
aF0.0
ag23
(g27
S'\x00\x00\x00\x00\x00\x00\x00\x00'
p781
tp782
Rp783
aF0.0
aF0.3967
aF0.0443
aF0.1212
aF0.0
aF0.0
aF0.585
aF0.0
aF0.0
aF0.0
aF0.0
aF0.0
aF0.0
aF0.0
aF0.0
aF0.0
asS'tr_hbips_7_overall_footnote'
p784
(lp785
F0.25
aF0.008
aF0.0
ag23
(g27
S'\x00\x00\x00\x00\x00\x00\x00\x00'
p786
tp787
Rp788
aF0.0
aF0.3925
aF0.0993
aF0.1836
aF0.0
aF0.0
aF0.4823
aF0.0
aF0.0
aF0.0
aF0.0
aF0.0
aF0.0
aF0.0
aF0.0
aF0.0
asS'tr_imm_2_footnote'
p789
(lp790
F0.25
aF0.008
aF0.0
ag23
(g27
S'\x00\x00\x00\x00\x00\x00\x00\x00'
p791
tp792
Rp793
aF0.0
aF0.3825
aF0.2245
aF0.2832
aF0.0
aF0.0
aF0.3276
aF0.0
aF0.0
aF0.0
aF0.0
aF0.0
aF0.0
aF0.0
aF0.0
aF0.0
asS'tr_hbips_3_overall_footnote'
p794
(lp795
F0.25
aF0.008
aF0.0
ag23
(g27
S'\x00\x00\x00\x00\x00\x00\x00\x00'
p796
tp797
Rp798
aF0.0
aF0.3936
aF0.0851
aF0.1694
aF0.0
aF0.0
aF0.4228
aF0.0
aF0.0
aF0.0
aF0.0
aF0.0
aF0.0
aF0.0
aF0.0
aF0.0
asS'ts_s_ehr_non_certified_count'
p799
(lp800
F0.25
aF0.008
aF0.0
ag23
(g27
S'\x00\x00\x00\x00\x00\x00\x00\x00'
p801
tp802
Rp803
aF0.0
aF0.1
aF0.0
aF0.0
aF0.0
aF0.0
aF0.077
aF0.0
aF0.0
aF0.0
aF0.0
aF0.0
aF0.0
aF0.0
aF0.0
aF0.0
asS'tr_hbips_5_overall_percentage_of_total'
p804
(lp805
F0.0
aF0.01
aF0.0
ag23
(g27
S'\x00\x00\x00\x00\x00\x00\x00\x00'
p806
tp807
Rp808
aF0.0
aF0.08
aF0.0
aF0.0
aF0.0
aF0.0
aF0.0854
aF0.0
aF0.0
aF0.0
aF0.0
aF0.0
aF0.0
aF0.0
aF0.0
aF0.0
asS'tr_hbips_6_overall_footnote'
p809
(lp810
F0.25
aF0.008
aF0.0
ag23
(g27
S'\x00\x00\x00\x00\x00\x00\x00\x00'
p811
tp812
Rp813
aF0.0
aF0.394
aF0.0804
aF0.1645
aF0.0
aF0.0
aF0.5122
aF0.0
aF0.0
aF0.0
aF0.0
aF0.0
aF0.0
aF0.0
aF0.0
aF0.0
asS'tr_sub_1_footnote'
p814
(lp815
F0.25
aF0.008
aF0.0
ag23
(g27
S'\x00\x00\x00\x00\x00\x00\x00\x00'
p816
tp817
Rp818
aF0.0
aF0.3863
aF0.1778
aF0.2495
aF0.0
aF0.0
aF0.3418
aF0.0
aF0.0
aF0.0
aF0.0
aF0.0
aF0.0
aF0.0
aF0.0
aF0.0
asS'tr_ehr_use_footnote'
p819
(lp820
F0.25
aF0.008
aF0.0
ag23
(g27
S'\x00\x00\x00\x00\x00\x00\x00\x00'
p821
tp822
Rp823
aF0.0
aF0.3967
aF0.0443
aF0.1212
aF0.0
aF0.0
aF0.585
aF0.0
aF0.0
aF0.0
aF0.0
aF0.0
aF0.0
aF0.0
aF0.0
aF0.0
asS'tr_peoc_assessed_footnote'
p824
(lp825
F0.25
aF0.008
aF0.0
ag23
(g27
S'\x00\x00\x00\x00\x00\x00\x00\x00'
p826
tp827
Rp828
aF0.0
aF0.3967
aF0.0443
aF0.1212
aF0.0
aF0.0
aF0.585
aF0.0
aF0.0
aF0.0
aF0.0
aF0.0
aF0.0
aF0.0
aF0.0
aF0.0
asS'tr_tob_1_footnote'
p829
(lp830
F0.25
aF0.008
aF0.0
ag23
(g27
S'\x00\x00\x00\x00\x00\x00\x00\x00'
p831
tp832
Rp833
aF0.0
aF0.3894
aF0.139
aF0.2189
aF0.0
aF0.0
aF0.3639
aF0.0
aF0.0
aF0.0
aF0.0
aF0.0
aF0.0
aF0.0
aF0.0
aF0.0
asS'tr_tob_2a_percentage'
p834
(lp835
F0.0
aF0.01
aF0.0
ag23
(g27
S'\x00\x00\x00\x00\x00\x00\x00\x00'
p836
tp837
Rp838
aF0.0
aF0.08
aF0.0
aF0.0
aF0.0
aF0.0
aF0.1078
aF0.0
aF0.0
aF0.0
aF0.0
aF0.0
aF0.0
aF0.0
aF0.0
aF0.0
asS'tr_fuh_7_percentage'
p839
(lp840
F0.0
aF0.01
aF0.0
ag23
(g27
S'\x00\x00\x00\x00\x00\x00\x00\x00'
p841
tp842
Rp843
aF0.0
aF0.08
aF0.0
aF0.0
aF0.0
aF0.0
aF0.2432
aF0.0
aF0.0
aF0.0
aF0.0
aF0.0
aF0.0
aF0.0
aF0.0
aF0.0
asS'tr_hcp_footnote'
p844
(lp845
F0.25
aF0.008
aF0.0
ag23
(g27
S'\x00\x00\x00\x00\x00\x00\x00\x00'
p846
tp847
Rp848
aF0.0
aF0.3825
aF0.2245
aF0.2832
aF0.0
aF0.0
aF0.295
aF0.0
aF0.0
aF0.0
aF0.0
aF0.0
aF0.0
aF0.0
aF0.0
aF0.0
assI34
g0
(tRp849
S'ts_state'
p850
(lp851
F0.5
aF0.004
aF1.0
ag23
(g27
S'\x00\x00\x00\x00\x00\x00\x00\x00'
p852
tp853
Rp854
aF1.0
aF0.4
aF0.0
aF0.0
aF0.0
aF0.0
aF0.0
aF0.0
aF0.0
aF0.0
aF0.0
aF0.0
aF1.0
aF0.0
aF0.0
aF0.0
ass.