ccollections
defaultdict
p0
(cdill.dill
_create_function
p1
(cdill.dill
_load_type
p2
(S'CodeType'
p3
tp4
Rp5
(I0
I0
I1
I67
S't\x00\x00\x83\x00\x00S'
p6
(Ntp7
(S'defaultdict'
p8
tp9
(tS'Run_me.py'
p10
S'<lambda>'
p11
I145
S''
p12
(t(ttp13
Rp14
c__main__
__dict__
g11
NN(dp15
tp16
Rp17
tp18
Rp19
I0
g0
(tRp20
S'tr_fuh_30_denominator'
p21
(lp22
F0.0
aF0.02
aF0.0
acnumpy.core.multiarray
scalar
p23
(cnumpy
dtype
p24
(S'f8'
p25
I0
I1
tp26
Rp27
(I3
S'<'
p28
NNNI-1
I-1
I0
tp29
bS'\x00\x00\x00\x00\x00\x00\x00\x00'
p30
tp31
Rp32
aF1.0
aF0.0003
aF0.0965
aF0.5059
aF0.0002
aF0.0
aF0.0673
aF0.0
aF0.0003
aF0.0
aF0.0
aF0.0
aF0.0
aF0.0
aF0.0
aF0.0
asS'tr_hbips_5_overall_den'
p33
(lp34
F0.0
aF0.02
aF0.0
ag23
(g27
S'\x00\x00\x00\x00\x00\x00\x00\x00'
p35
tp36
Rp37
aF1.0
aF0.0002
aF0.0657
aF0.6244
aF0.0001
aF0.0
aF0.2004
aF0.0
aF0.0006
aF0.0
aF0.0
aF0.0
aF0.0
aF0.0
aF0.0
aF0.0
asS'tr_tob_2_numerator'
p38
(lp39
F0.0
aF0.02
aF0.0
ag23
(g27
S'\x00\x00\x00\x00\x00\x00\x00\x00'
p40
tp41
Rp42
aF1.0
aF0.0003
aF0.1058
aF0.5215
aF0.0002
aF0.0
aF0.0794
aF0.0
aF0.0005
aF0.0
aF0.0
aF0.0
aF0.0
aF0.0
aF0.0
aF0.0
asS'tr_hcp_numerator'
p43
(lp44
F0.0
aF0.02
aF0.0
ag23
(g27
S'\x00\x00\x00\x00\x00\x00\x00\x00'
p45
tp46
Rp47
aF1.0
aF0.0004
aF0.0826
aF0.4252
aF0.0005
aF0.0
aF0.2292
aF0.0
aF0.0083
aF0.0
aF0.0
aF0.0
aF0.0
aF0.0
aF0.0
aF0.0
asS'tr_tob_2_2a_denominator'
p48
(lp49
F0.0
aF0.02
aF0.0
ag23
(g27
S'\x00\x00\x00\x00\x00\x00\x00\x00'
p50
tp51
Rp52
aF1.0
aF0.0004
aF0.1069
aF0.4754
aF0.0004
aF0.0
aF0.1232
aF0.0
aF0.0036
aF0.0
aF0.0
aF0.0
aF0.0
aF0.0
aF0.0
aF0.0
asS'tr_hbips_5_overall_num'
p53
(lp54
F0.0
aF0.02
aF0.0
ag23
(g27
S'\x00\x00\x00\x00\x00\x00\x00\x00'
p55
tp56
Rp57
aF1.0
aF0.0002
aF0.0539
aF0.5852
aF0.0
aF0.0
aF0.1572
aF0.0
aF0.0002
aF0.0
aF0.0
aF0.0
aF0.0
aF0.0
aF0.0
aF0.0
asS'tr_tob_2_2a__denominator'
p58
(lp59
F0.0
aF0.02
aF0.0
ag23
(g27
S'\x00\x00\x00\x00\x00\x00\x00\x00'
p60
tp61
Rp62
aF1.0
aF0.0003
aF0.1432
aF0.5909
aF0.0003
aF0.0
aF0.1338
aF0.0
aF0.0036
aF0.0
aF0.0
aF0.0
aF0.0
aF0.0
aF0.0
aF0.0
asS'tr_tob_2a_numerator'
p63
(lp64
F0.0
aF0.02
aF0.0
ag23
(g27
S'\x00\x00\x00\x00\x00\x00\x00\x00'
p65
tp66
Rp67
aF1.0
aF0.0003
aF0.0976
aF0.6094
aF0.0001
aF0.0
aF0.1109
aF0.0
aF0.0005
aF0.0
aF0.0
aF0.0
aF0.0
aF0.0
aF0.0
aF0.0
asS'tr_fuh_7_denominator'
p68
(lp69
F0.0
aF0.02
aF0.0
ag23
(g27
S'\x00\x00\x00\x00\x00\x00\x00\x00'
p70
tp71
Rp72
aF1.0
aF0.0003
aF0.1259
aF0.6125
aF0.0002
aF0.0
aF0.0724
aF0.0
aF0.0003
aF0.0
aF0.0
aF0.0
aF0.0
aF0.0
aF0.0
aF0.0
asS'tr_hcp_denominator'
p73
(lp74
F0.0
aF0.02
aF0.0
ag23
(g27
S'\x00\x00\x00\x00\x00\x00\x00\x00'
p75
tp76
Rp77
aF1.0
aF0.0004
aF0.0887
aF0.4251
aF0.0007
aF0.0
aF0.2059
aF0.0
aF0.0095
aF0.0
aF0.0
aF0.0
aF0.0
aF0.0
aF0.0
aF0.0
asS'tr_fuh_7_numerator'
p78
(lp79
F0.0
aF0.02
aF0.0
ag23
(g27
S'\x00\x00\x00\x00\x00\x00\x00\x00'
p80
tp81
Rp82
aF1.0
aF0.0003
aF0.0579
aF0.495
aF0.0001
aF0.0
aF0.0773
aF0.0
aF0.0001
aF0.0
aF0.0
aF0.0
aF0.0
aF0.0
aF0.0
aF0.0
asS'tr_fuh_30_numerator'
p83
(lp84
F0.0
aF0.02
aF0.0
ag23
(g27
S'\x00\x00\x00\x00\x00\x00\x00\x00'
p85
tp86
Rp87
aF1.0
aF0.0003
aF0.0664
aF0.4651
aF0.0001
aF0.0
aF0.0677
aF0.0
aF0.0002
aF0.0
aF0.0
aF0.0
aF0.0
aF0.0
aF0.0
aF0.0
assI1
g0
(tRp88
S'ts_s_hbips_7_overall_den'
p89
(lp90
F0.0
aF0.02
aF0.0
ag23
(g27
S'\x00\x00\x00\x00\x00\x00\x00\x00'
p91
tp92
Rp93
aF1.0
aF0.0007
aF0.0523
aF0.183
aF0.0334
aF0.0008
aF0.0616
aF0.0305
aF0.0196
aF0.0
aF0.0
aF0.0
aF0.0
aF0.0
aF0.0
aF0.0
asS'tr_hbips_6_overall_num'
p94
(lp95
F0.0
aF0.02
aF0.0
ag23
(g27
S'\x00\x00\x00\x00\x00\x00\x00\x00'
p96
tp97
Rp98
aF1.0
aF0.0004
aF0.0481
aF0.2675
aF0.0009
aF0.0
aF0.0653
aF0.0
aF0.0024
aF0.0
aF0.0
aF0.0
aF0.0
aF0.0
aF0.0
aF0.0
asS'ts_s_sub_1_numerator'
p99
(lp100
F0.0
aF0.02
aF0.0
ag23
(g27
S'\x00\x00\x00\x00\x00\x00\x00\x00'
p101
tp102
Rp103
aF1.0
aF0.0006
aF0.0679
aF0.2176
aF0.0221
aF0.0003
aF0.06
aF0.0125
aF0.012
aF0.0
aF0.0
aF0.0
aF0.0
aF0.0
aF0.0
aF0.0
asS'ts_s_tob_1_numerator'
p104
(lp105
F0.0
aF0.02
aF0.0
ag23
(g27
S'\x00\x00\x00\x00\x00\x00\x00\x00'
p106
tp107
Rp108
aF1.0
aF0.0007
aF0.057
aF0.1967
aF0.024
aF0.0004
aF0.0654
aF0.0122
aF0.0186
aF0.0
aF0.0
aF0.0
aF0.0
aF0.0
aF0.0
aF0.0
asS'tr_hbips_7_overall_num'
p109
(lp110
F0.0
aF0.02
aF0.0
ag23
(g27
S'\x00\x00\x00\x00\x00\x00\x00\x00'
p111
tp112
Rp113
aF1.0
aF0.0004
aF0.0526
aF0.2835
aF0.0008
aF0.0
aF0.0654
aF0.0
aF0.002
aF0.0
aF0.0
aF0.0
aF0.0
aF0.0
aF0.0
aF0.0
asS'tr_hbips_3_overall_den'
p114
(lp115
F0.0
aF0.02
aF0.0
ag23
(g27
S'\x00\x00\x00\x00\x00\x00\x00\x00'
p116
tp117
Rp118
aF1.0
aF0.0006
aF0.1027
aF0.268
aF0.0309
aF0.0001
aF0.1164
aF0.0
aF0.1575
aF0.0
aF0.0
aF0.0
aF0.0
aF0.0
aF0.0
aF0.0
asS'ts_s_fuh_7_numerator'
p119
(lp120
F0.0
aF0.02
aF0.0
ag23
(g27
S'\x00\x00\x00\x00\x00\x00\x00\x00'
p121
tp122
Rp123
aF1.0
aF0.0005
aF0.069
aF0.292
aF0.0021
aF0.0
aF0.0674
aF0.0006
aF0.0014
aF0.0
aF0.0
aF0.0
aF0.0
aF0.0
aF0.0
aF0.0
asS'ts_s_imm_2_denominator'
p124
(lp125
F0.0
aF0.02
aF0.0
ag23
(g27
S'\x00\x00\x00\x00\x00\x00\x00\x00'
p126
tp127
Rp128
aF1.0
aF0.0006
aF0.0619
aF0.2118
aF0.018
aF0.0003
aF0.071
aF0.0174
aF0.0179
aF0.0
aF0.0
aF0.0
aF0.0
aF0.0
aF0.0
aF0.0
asS'ts_s_hbips_2_overall_num'
p129
(lp130
F0.0
aF0.02
aF0.0
ag23
(g27
S'\x00\x00\x00\x00\x00\x00\x00\x00'
p131
tp132
Rp133
aF1.0
aF0.0006
aF0.1372
aF0.3447
aF0.0164
aF0.0008
aF0.133
aF0.0019
aF0.0356
aF0.0
aF0.0
aF0.0
aF0.0
aF0.0
aF0.0
aF0.0
asS'ts_s_tob_2a_numerator'
p134
(lp135
F0.0
aF0.02
aF0.0
ag23
(g27
S'\x00\x00\x00\x00\x00\x00\x00\x00'
p136
tp137
Rp138
aF1.0
aF0.0005
aF0.066
aF0.2684
aF0.0037
aF0.0
aF0.0603
aF0.0019
aF0.0021
aF0.0
aF0.0
aF0.0
aF0.0
aF0.0
aF0.0
aF0.0
asS'ts_s_hbips_7_overall_num'
p139
(lp140
F0.0
aF0.02
aF0.0
ag23
(g27
S'\x00\x00\x00\x00\x00\x00\x00\x00'
p141
tp142
Rp143
aF1.0
aF0.0007
aF0.0523
aF0.1839
aF0.0263
aF0.0004
aF0.0596
aF0.0279
aF0.0153
aF0.0
aF0.0
aF0.0
aF0.0
aF0.0
aF0.0
aF0.0
asS'ts_s_tob_1_denominator'
p144
(lp145
F0.0
aF0.02
aF0.0
ag23
(g27
S'\x00\x00\x00\x00\x00\x00\x00\x00'
p146
tp147
Rp148
aF1.0
aF0.0007
aF0.0577
aF0.1971
aF0.0262
aF0.0005
aF0.0648
aF0.0149
aF0.0198
aF0.0
aF0.0
aF0.0
aF0.0
aF0.0
aF0.0
aF0.0
asS'ts_s_tob_2_2a__denominator'
p149
(lp150
F0.0
aF0.02
aF0.0
ag23
(g27
S'\x00\x00\x00\x00\x00\x00\x00\x00'
p151
tp152
Rp153
aF1.0
aF0.0006
aF0.0657
aF0.2284
aF0.012
aF0.0001
aF0.0648
aF0.0048
aF0.0085
aF0.0
aF0.0
aF0.0
aF0.0
aF0.0
aF0.0
aF0.0
asS'tr_imm_2_denominator'
p154
(lp155
F0.0
aF0.02
aF0.0
ag23
(g27
S'\x00\x00\x00\x00\x00\x00\x00\x00'
p156
tp157
Rp158
aF1.0
aF0.0004
aF0.0622
aF0.3264
aF0.0006
aF0.0
aF0.1679
aF0.0
aF0.0085
aF0.0
aF0.0
aF0.0
aF0.0
aF0.0
aF0.0
aF0.0
asS'ts_s_hbips_3_overall_num'
p159
(lp160
F0.0
aF0.02
aF0.0
ag23
(g27
S'\x00\x00\x00\x00\x00\x00\x00\x00'
p161
tp162
Rp163
aF1.0
aF0.0006
aF0.1049
aF0.3076
aF0.0114
aF0.0007
aF0.1789
aF0.0024
aF0.0353
aF0.0
aF0.0
aF0.0
aF0.0
aF0.0
aF0.0
aF0.0
asS'ts_s_fuh_30_denominator'
p164
(lp165
F0.0
aF0.02
aF0.0
ag23
(g27
S'\x00\x00\x00\x00\x00\x00\x00\x00'
p166
tp167
Rp168
aF1.0
aF0.0006
aF0.0608
aF0.233
aF0.0069
aF0.0
aF0.0646
aF0.0022
aF0.0042
aF0.0
aF0.0
aF0.0
aF0.0
aF0.0
aF0.0
aF0.0
asS'tr_hbips_6_overall_den'
p169
(lp170
F0.0
aF0.02
aF0.0
ag23
(g27
S'\x00\x00\x00\x00\x00\x00\x00\x00'
p171
tp172
Rp173
aF1.0
aF0.0005
aF0.0437
aF0.25
aF0.0011
aF0.0
aF0.1284
aF0.0
aF0.0116
aF0.0
aF0.0
aF0.0
aF0.0
aF0.0
aF0.0
aF0.0
asS'tr_imm_2_numerator'
p174
(lp175
F0.0
aF0.02
aF0.0
ag23
(g27
S'\x00\x00\x00\x00\x00\x00\x00\x00'
p176
tp177
Rp178
aF1.0
aF0.0004
aF0.0789
aF0.3878
aF0.0004
aF0.0
aF0.0778
aF0.0
aF0.0017
aF0.0
aF0.0
aF0.0
aF0.0
aF0.0
aF0.0
aF0.0
asS'ts_s_hbips_6_overall_num'
p179
(lp180
F0.0
aF0.02
aF0.0
ag23
(g27
S'\x00\x00\x00\x00\x00\x00\x00\x00'
p181
tp182
Rp183
aF1.0
aF0.0007
aF0.0523
aF0.183
aF0.0283
aF0.0005
aF0.0596
aF0.0292
aF0.0165
aF0.0
aF0.0
aF0.0
aF0.0
aF0.0
aF0.0
aF0.0
asS'ts_s_imm_2_numerator'
p184
(lp185
F0.0
aF0.02
aF0.0
ag23
(g27
S'\x00\x00\x00\x00\x00\x00\x00\x00'
p186
tp187
Rp188
aF1.0
aF0.0006
aF0.0688
aF0.2324
aF0.0128
aF0.0001
aF0.0604
aF0.0107
aF0.0076
aF0.0
aF0.0
aF0.0
aF0.0
aF0.0
aF0.0
aF0.0
asS'ts_s_hbips_6_overall_den'
p189
(lp190
F0.0
aF0.02
aF0.0
ag23
(g27
S'\x00\x00\x00\x00\x00\x00\x00\x00'
p191
tp192
Rp193
aF1.0
aF0.0007
aF0.0523
aF0.183
aF0.0334
aF0.0008
aF0.0616
aF0.0305
aF0.0196
aF0.0
aF0.0
aF0.0
aF0.0
aF0.0
aF0.0
aF0.0
asS'ts_s_fuh_30_numerator'
p194
(lp195
F0.0
aF0.02
aF0.0
ag23
(g27
S'\x00\x00\x00\x00\x00\x00\x00\x00'
p196
tp197
Rp198
aF1.0
aF0.0005
aF0.0593
aF0.2501
aF0.0037
aF0.0
aF0.064
aF0.0013
aF0.0021
aF0.0
aF0.0
aF0.0
aF0.0
aF0.0
aF0.0
aF0.0
asS'ts_s_sub_1_denominator'
p199
(lp200
F0.0
aF0.02
aF0.0
ag23
(g27
S'\x00\x00\x00\x00\x00\x00\x00\x00'
p201
tp202
Rp203
aF1.0
aF0.0007
aF0.0639
aF0.2084
aF0.0253
aF0.0004
aF0.0602
aF0.015
aF0.0139
aF0.0
aF0.0
aF0.0
aF0.0
aF0.0
aF0.0
aF0.0
asS'tr_sub_1_denominator'
p204
(lp205
F0.0
aF0.02
aF0.0
ag23
(g27
S'\x00\x00\x00\x00\x00\x00\x00\x00'
p206
tp207
Rp208
aF1.0
aF0.0004
aF0.0494
aF0.2797
aF0.0008
aF0.0
aF0.0595
aF0.0
aF0.0016
aF0.0
aF0.0
aF0.0
aF0.0
aF0.0
aF0.0
aF0.0
asS'ts_s_hcp_numerator'
p209
(lp210
F0.0
aF0.02
aF0.0
ag23
(g27
S'\x00\x00\x00\x00\x00\x00\x00\x00'
p211
tp212
Rp213
aF1.0
aF0.0008
aF0.0523
aF0.1505
aF0.3024
aF0.061
aF0.0612
aF0.1547
aF0.2147
aF0.0
aF0.0
aF0.0
aF0.0
aF0.0
aF0.0
aF0.0
asS'tr_tob_1_numerator'
p214
(lp215
F0.0
aF0.02
aF0.0
ag23
(g27
S'\x00\x00\x00\x00\x00\x00\x00\x00'
p216
tp217
Rp218
aF1.0
aF0.0004
aF0.047
aF0.2743
aF0.0008
aF0.0
aF0.107
aF0.0
aF0.0069
aF0.0
aF0.0
aF0.0
aF0.0
aF0.0
aF0.0
aF0.0
asS'tr_hbips_2_overall_den'
p219
(lp220
F0.0
aF0.02
aF0.0
ag23
(g27
S'\x00\x00\x00\x00\x00\x00\x00\x00'
p221
tp222
Rp223
aF1.0
aF0.0006
aF0.0987
aF0.262
aF0.0316
aF0.0001
aF0.1182
aF0.0
aF0.1575
aF0.0
aF0.0
aF0.0
aF0.0
aF0.0
aF0.0
aF0.0
asS'tr_hbips_7_overall_den'
p224
(lp225
F0.0
aF0.02
aF0.0
ag23
(g27
S'\x00\x00\x00\x00\x00\x00\x00\x00'
p226
tp227
Rp228
aF1.0
aF0.0004
aF0.0474
aF0.2609
aF0.001
aF0.0
aF0.1289
aF0.0
aF0.0116
aF0.0
aF0.0
aF0.0
aF0.0
aF0.0
aF0.0
aF0.0
asS'ts_s_tob_2_2a_denominator'
p229
(lp230
F0.0
aF0.02
aF0.0
ag23
(g27
S'\x00\x00\x00\x00\x00\x00\x00\x00'
p231
tp232
Rp233
aF1.0
aF0.0006
aF0.0657
aF0.2284
aF0.012
aF0.0001
aF0.0648
aF0.0048
aF0.0085
aF0.0
aF0.0
aF0.0
aF0.0
aF0.0
aF0.0
aF0.0
asS'tr_tob_1_denominator'
p234
(lp235
F0.0
aF0.02
aF0.0
ag23
(g27
S'\x00\x00\x00\x00\x00\x00\x00\x00'
p236
tp237
Rp238
aF1.0
aF0.0004
aF0.0432
aF0.2597
aF0.0008
aF0.0
aF0.1029
aF0.0
aF0.007
aF0.0
aF0.0
aF0.0
aF0.0
aF0.0
aF0.0
aF0.0
asS'ts_s_hbips_5_overall_num'
p239
(lp240
F0.0
aF0.02
aF0.0
ag23
(g27
S'\x00\x00\x00\x00\x00\x00\x00\x00'
p241
tp242
Rp243
aF1.0
aF0.0004
aF0.0802
aF0.3434
aF0.0012
aF0.0
aF0.0719
aF0.0001
aF0.001
aF0.0
aF0.0
aF0.0
aF0.0
aF0.0
aF0.0
aF0.0
asS'ts_s_fuh_7_denominator'
p244
(lp245
F0.0
aF0.02
aF0.0
ag23
(g27
S'\x00\x00\x00\x00\x00\x00\x00\x00'
p246
tp247
Rp248
aF1.0
aF0.0006
aF0.0608
aF0.233
aF0.0069
aF0.0
aF0.0646
aF0.0022
aF0.0042
aF0.0
aF0.0
aF0.0
aF0.0
aF0.0
aF0.0
aF0.0
asS'ts_s_hbips_5_overall_den'
p249
(lp250
F0.0
aF0.02
aF0.0
ag23
(g27
S'\x00\x00\x00\x00\x00\x00\x00\x00'
p251
tp252
Rp253
aF1.0
aF0.0005
aF0.0791
aF0.3166
aF0.002
aF0.0
aF0.077
aF0.0005
aF0.0018
aF0.0
aF0.0
aF0.0
aF0.0
aF0.0
aF0.0
aF0.0
asS'tr_sub_1_numerator'
p254
(lp255
F0.0
aF0.02
aF0.0
ag23
(g27
S'\x00\x00\x00\x00\x00\x00\x00\x00'
p256
tp257
Rp258
aF1.0
aF0.0004
aF0.0613
aF0.3196
aF0.0007
aF0.0
aF0.0575
aF0.0
aF0.0015
aF0.0
aF0.0
aF0.0
aF0.0
aF0.0
aF0.0
aF0.0
asS'ts_s_tob_2_numerator'
p259
(lp260
F0.0
aF0.02
aF0.0
ag23
(g27
S'\x00\x00\x00\x00\x00\x00\x00\x00'
p261
tp262
Rp263
aF1.0
aF0.0006
aF0.0748
aF0.2584
aF0.0074
aF0.0
aF0.0606
aF0.0034
aF0.0037
aF0.0
aF0.0
aF0.0
aF0.0
aF0.0
aF0.0
aF0.0
assI4
g0
(tRp264
S'ts_s_fuh_measure_end_date'
p265
(lp266
F1.0
aF0.008
aF0.0
ag23
(g27
S'\x00\x00\x00\x00\x00\x00\x00\x00'
p267
tp268
Rp269
aF0.0
aF0.0006
aF0.0
aF0.0
aF0.0
aF0.0
aF0.0
aF0.0
aF0.0
aF0.0
aF0.8681
aF1.0
aF0.2
aF1.0
aF0.0
aF0.0
asS'ts_s_flu_season_start_date'
p270
(lp271
F1.0
aF0.008
aF0.0
ag23
(g27
S'\x00\x00\x00\x00\x00\x00\x00\x00'
p272
tp273
Rp274
aF0.0
aF0.0006
aF0.0
aF0.0
aF0.0
aF0.0
aF0.0
aF0.0
aF0.0
aF0.0
aF0.8681
aF1.0
aF0.2
aF1.0
aF0.0
aF0.0
asS'ts_s_fuh_measure_start_date'
p275
(lp276
F1.0
aF0.008
aF0.0
ag23
(g27
S'\x00\x00\x00\x00\x00\x00\x00\x00'
p277
tp278
Rp279
aF0.0
aF0.0006
aF0.0
aF0.0
aF0.0
aF0.0
aF0.0
aF0.0
aF0.0
aF0.0
aF0.8681
aF1.0
aF0.2
aF1.0
aF0.0
aF0.0
asS'tr_fuh_measure_start_date'
p280
(lp281
F1.0
aF0.008
aF0.0
ag23
(g27
S'\x00\x00\x00\x00\x00\x00\x00\x00'
p282
tp283
Rp284
aF0.0
aF0.0006
aF0.0
aF0.0
aF0.0
aF0.0
aF0.0
aF0.0
aF0.0
aF0.0
aF0.8681
aF1.0
aF0.2
aF1.0
aF0.0
aF0.0
asS'tr_end_date'
p285
(lp286
F1.0
aF0.008
aF0.0
ag23
(g27
S'\x00\x00\x00\x00\x00\x00\x00\x00'
p287
tp288
Rp289
aF0.0
aF0.0006
aF0.0
aF0.0
aF0.0
aF0.0
aF0.0
aF0.0
aF0.0
aF0.0
aF0.8681
aF1.0
aF0.2
aF1.0
aF0.0
aF0.0
asS'tr_flu_season_start_date'
p290
(lp291
F1.0
aF0.008
aF0.0
ag23
(g27
S'\x00\x00\x00\x00\x00\x00\x00\x00'
p292
tp293
Rp294
aF0.0
aF0.0006
aF0.0
aF0.0
aF0.0
aF0.0
aF0.0
aF0.0
aF0.0
aF0.0
aF0.8681
aF1.0
aF0.2
aF1.0
aF0.0
aF0.0
asS'ts_start_date'
p295
(lp296
F1.0
aF0.008
aF0.0
ag23
(g27
S'\x00\x00\x00\x00\x00\x00\x00\x00'
p297
tp298
Rp299
aF0.0
aF0.0006
aF0.0
aF0.0
aF0.0
aF0.0
aF0.0
aF0.0
aF0.0
aF0.0
aF0.8681
aF1.0
aF0.2
aF1.0
aF0.0
aF0.0
asS'tr_fuh_measure_end_date'
p300
(lp301
F1.0
aF0.008
aF0.0
ag23
(g27
S'\x00\x00\x00\x00\x00\x00\x00\x00'
p302
tp303
Rp304
aF0.0
aF0.0006
aF0.0
aF0.0
aF0.0
aF0.0
aF0.0
aF0.0
aF0.0
aF0.0
aF0.8681
aF1.0
aF0.2
aF1.0
aF0.0
aF0.0
asS'tr_flu_season_end_date'
p305
(lp306
F1.0
aF0.008
aF0.0
ag23
(g27
S'\x00\x00\x00\x00\x00\x00\x00\x00'
p307
tp308
Rp309
aF0.0
aF0.0006
aF0.0
aF0.0
aF0.0
aF0.0
aF0.0
aF0.0
aF0.0
aF0.0
aF0.8681
aF1.0
aF0.2
aF1.0
aF0.0
aF0.0
asS'ts_s_flu_season_end_date'
p310
(lp311
F1.0
aF0.008
aF0.0
ag23
(g27
S'\x00\x00\x00\x00\x00\x00\x00\x00'
p312
tp313
Rp314
aF0.0
aF0.0006
aF0.0
aF0.0
aF0.0
aF0.0
aF0.0
aF0.0
aF0.0
aF0.0
aF0.8681
aF1.0
aF0.2
aF1.0
aF0.0
aF0.0
asS'ts_end_date'
p315
(lp316
F1.0
aF0.008
aF0.0
ag23
(g27
S'\x00\x00\x00\x00\x00\x00\x00\x00'
p317
tp318
Rp319
aF0.0
aF0.0006
aF0.0
aF0.0
aF0.0
aF0.0
aF0.0
aF0.0
aF0.0
aF0.0
aF0.8681
aF1.0
aF0.2
aF1.0
aF0.0
aF0.0
asS'tr_start_date'
p320
(lp321
F1.0
aF0.008
aF0.0
ag23
(g27
S'\x00\x00\x00\x00\x00\x00\x00\x00'
p322
tp323
Rp324
aF0.0
aF0.0006
aF0.0
aF0.0
aF0.0
aF0.0
aF0.0
aF0.0
aF0.0
aF0.0
aF0.8681
aF1.0
aF0.2
aF1.0
aF0.0
aF0.0
assI6
g0
(tRp325
S'ts_s_ehr_non_certified_count'
p326
(lp327
F0.25
aF0.008
aF0.0
ag23
(g27
S'\x00\x00\x00\x00\x00\x00\x00\x00'
p328
tp329
Rp330
aF0.0
aF0.0001
aF0.0
aF0.0
aF0.0
aF0.0
aF0.077
aF0.0
aF0.0
aF0.0
aF0.0
aF0.0
aF0.0
aF0.0
aF0.0
aF0.0
asS'tr_zip_code'
p331
(lp332
F0.25
aF0.008
aF0.0
ag23
(g27
S'\x00\x00\x00\x00\x00\x00\x00\x00'
p333
tp334
Rp335
aF0.0
aF0.0003
aF0.0446
aF0.0986
aF0.0913
aF0.0001
aF0.0358
aF0.0227
aF0.0281
aF0.0
aF0.0
aF0.0
aF0.0
aF0.0
aF0.0
aF0.0
assI7
g0
(tRp336
S'ts_s_hcp_denominator'
p337
(lp338
F0.0
aF0.02
aF0.0
ag23
(g27
S'\x00\x00\x00\x00\x00\x00\x00\x00'
p339
tp340
Rp341
aF1.0
aF0.0008
aF0.0517
aF0.148
aF0.3538
aF0.088
aF0.0628
aF0.2371
aF0.2616
aF0.0
aF0.0
aF0.0
aF0.0
aF0.0
aF0.0
aF0.0
assI8
g0
(tRp342
S'ts_s_hbips_2_overall_den'
p343
(lp344
F0.0
aF0.02
aF0.0
ag23
(g27
S'\x00\x00\x00\x00\x00\x00\x00\x00'
p345
tp346
Rp347
aF1.0
aF0.0009
aF0.0626
aF0.1517
aF1.0
aF1.0
aF0.0749
aF1.0
aF1.0
aF0.0
aF0.0
aF0.0
aF0.0
aF0.0
aF0.0
aF0.0
asS'ts_s_hbips_3_overall_den'
p348
(lp349
F0.0
aF0.02
aF0.0
ag23
(g27
S'\x00\x00\x00\x00\x00\x00\x00\x00'
p350
tp351
Rp352
aF1.0
aF0.0009
aF0.0626
aF0.1517
aF0.9775
aF0.9539
aF0.0749
aF1.0
aF0.9887
aF0.0
aF0.0
aF0.0
aF0.0
aF0.0
aF0.0
aF0.0
assI10
g0
(tRp353
S'tr_hbips_3_overall_rate_per_1000'
p354
(lp355
F0.5
aF1.0
aF0.0
ag23
(g27
S'\x00\x00\x00\x00\x00\x00\x00\x00'
p356
tp357
Rp358
aF0.0
aF0.0198
aF0.0078
aF0.8545
aF0.0
aF0.0
aF0.0
aF0.0
aF0.0
aF0.0
aF0.9197
aF0.9851
aF0.2119
aF0.0
aF0.0
aF0.0
asS'tr_hbips_2_overall_rate_per_1000'
p359
(lp360
F0.5
aF1.0
aF0.0
ag23
(g27
S'\x00\x00\x00\x00\x00\x00\x00\x00'
p361
tp362
Rp363
aF0.0
aF0.0233
aF0.0065
aF0.6624
aF0.0
aF0.0
aF0.0
aF0.0
aF0.0
aF0.0
aF1.0
aF0.962
aF0.2304
aF0.0
aF0.0
aF0.0
assI12
g0
(tRp364
S'ts_s_hie_yes_count'
p365
(lp366
F0.25
aF0.008
aF0.0
ag23
(g27
S'\x00\x00\x00\x00\x00\x00\x00\x00'
p367
tp368
Rp369
aF0.0
aF0.0001
aF0.112
aF0.5304
aF0.0
aF0.0
aF0.0568
aF0.0
aF0.0
aF0.0
aF0.0
aF0.0
aF0.0
aF0.0
aF0.0
aF0.0
asS'ts_s_ehr_certified_percentage'
p370
(lp371
F0.0
aF0.01
aF0.0
ag23
(g27
S'\x00\x00\x00\x00\x00\x00\x00\x00'
p372
tp373
Rp374
aF0.0
aF0.0001
aF0.0134
aF0.1509
aF0.0001
aF0.0
aF0.0254
aF0.0
aF0.0
aF0.0
aF0.0
aF0.0
aF0.0
aF0.0
aF0.0
aF0.0
asS'ts_s_peoc_yes_count'
p375
(lp376
F0.25
aF0.008
aF0.0
ag23
(g27
S'\x00\x00\x00\x00\x00\x00\x00\x00'
p377
tp378
Rp379
aF0.0
aF0.0001
aF0.0967
aF0.42
aF0.0
aF0.0
aF0.0571
aF0.0001
aF0.0
aF0.0
aF0.0
aF0.0
aF0.0
aF0.0
aF0.0
aF0.0
asS'ts_s_ehr_paper_percentage'
p380
(lp381
F0.0
aF0.01
aF0.0
ag23
(g27
S'\x00\x00\x00\x00\x00\x00\x00\x00'
p382
tp383
Rp384
aF0.0
aF0.0002
aF0.0069
aF0.1047
aF0.0001
aF0.0
aF0.0156
aF0.0007
aF0.0
aF0.0
aF0.0
aF0.0
aF0.0
aF0.0
aF0.0
aF0.0
asS'ts_s_hie_no_count'
p385
(lp386
F0.25
aF0.008
aF0.0
ag23
(g27
S'\x00\x00\x00\x00\x00\x00\x00\x00'
p387
tp388
Rp389
aF0.0
aF0.0001
aF0.1074
aF0.4639
aF0.0
aF0.0
aF0.0565
aF0.0001
aF0.0
aF0.0
aF0.0
aF0.0
aF0.0
aF0.0
aF0.0
aF0.0
asS'ts_s_peoc_no_count'
p390
(lp391
F0.25
aF0.008
aF0.0
ag23
(g27
S'\x00\x00\x00\x00\x00\x00\x00\x00'
p392
tp393
Rp394
aF0.0
aF0.0001
aF0.0998
aF0.5444
aF0.0
aF0.0
aF0.0585
aF0.0
aF0.0
aF0.0
aF0.0
aF0.0
aF0.0
aF0.0
aF0.0
aF0.0
asS'ts_s_peoc_yes_percentage'
p395
(lp396
F0.0
aF0.01
aF0.0
ag23
(g27
S'\x00\x00\x00\x00\x00\x00\x00\x00'
p397
tp398
Rp399
aF0.0
aF0.0002
aF0.037
aF0.2326
aF0.0001
aF0.0
aF0.012
aF0.0018
aF0.0
aF0.0
aF0.0
aF0.0
aF0.0
aF0.0
aF0.0
aF0.0
asS'tr_hcp_percentage'
p400
(lp401
F0.0
aF0.01
aF0.0
ag23
(g27
S'\x00\x00\x00\x00\x00\x00\x00\x00'
p402
tp403
Rp404
aF0.0
aF0.0002
aF0.0613
aF0.3089
aF0.0001
aF0.0
aF0.0221
aF0.0
aF0.0
aF0.0
aF0.0
aF0.0
aF0.0
aF0.0
aF0.0
aF0.0
asS'ts_s_ehr_certified_count'
p405
(lp406
F0.25
aF0.008
aF0.0
ag23
(g27
S'\x00\x00\x00\x00\x00\x00\x00\x00'
p407
tp408
Rp409
aF0.0
aF0.0001
aF0.1134
aF0.5133
aF0.0
aF0.0
aF0.0531
aF0.0
aF0.0
aF0.0
aF0.0
aF0.0
aF0.0
aF0.0
aF0.0
aF0.0
asS'ts_s_ehr_paper_count'
p410
(lp411
F0.25
aF0.008
aF0.0
ag23
(g27
S'\x00\x00\x00\x00\x00\x00\x00\x00'
p412
tp413
Rp414
aF0.0
aF0.0001
aF0.112
aF0.491
aF0.0
aF0.0
aF0.0597
aF0.0
aF0.0
aF0.0
aF0.0
aF0.0
aF0.0
aF0.0
aF0.0
aF0.0
asS'ts_s_peoc_no_percentage'
p415
(lp416
F0.0
aF0.01
aF0.0
ag23
(g27
S'\x00\x00\x00\x00\x00\x00\x00\x00'
p417
tp418
Rp419
aF0.0
aF0.0001
aF0.0519
aF0.319
aF0.0
aF0.0
aF0.0378
aF0.0
aF0.0
aF0.0
aF0.0
aF0.0
aF0.0
aF0.0
aF0.0
aF0.0
asS'ts_s_ehr_non_certified_percentage'
p420
(lp421
F0.0
aF0.01
aF0.0
ag23
(g27
S'\x00\x00\x00\x00\x00\x00\x00\x00'
p422
tp423
Rp424
aF0.0
aF0.0001
aF0.0316
aF0.4141
aF0.0
aF0.0
aF0.0995
aF0.0
aF0.0
aF0.0
aF0.0
aF0.0
aF0.0
aF0.0
aF0.0
aF0.0
assI13
g0
(tRp425
S'tr_tob_1_percentage'
p426
(lp427
F0.0
aF0.01
aF0.0
ag23
(g27
S'\x00\x00\x00\x00\x00\x00\x00\x00'
p428
tp429
Rp430
aF0.0
aF0.0001
aF0.0
aF0.0
aF0.0
aF0.0
aF0.0157
aF0.0
aF0.0
aF0.0
aF0.0
aF0.0
aF0.0
aF0.0
aF0.0
aF0.0
asS'tr_imm_2_percentage'
p431
(lp432
F0.0
aF0.01
aF0.0
ag23
(g27
S'\x00\x00\x00\x00\x00\x00\x00\x00'
p433
tp434
Rp435
aF0.0
aF0.0001
aF0.0
aF0.0
aF0.0
aF0.0
aF0.0292
aF0.0
aF0.0
aF0.0
aF0.0
aF0.0
aF0.0
aF0.0
aF0.0
aF0.0
asS'tr_hbips_2_overall_footnote'
p436
(lp437
F0.25
aF0.008
aF0.0
ag23
(g27
S'\x00\x00\x00\x00\x00\x00\x00\x00'
p438
tp439
Rp440
aF0.0
aF0.0002
aF0.0755
aF0.1594
aF0.0
aF0.0
aF0.4502
aF0.0
aF0.0
aF0.0
aF0.0
aF0.0
aF0.0
aF0.0
aF0.0
aF0.0
asS'tr_hie_footnote'
p441
(lp442
F0.25
aF0.008
aF0.0
ag23
(g27
S'\x00\x00\x00\x00\x00\x00\x00\x00'
p443
tp444
Rp445
aF0.0
aF0.0002
aF0.0443
aF0.1212
aF0.0
aF0.0
aF0.585
aF0.0
aF0.0
aF0.0
aF0.0
aF0.0
aF0.0
aF0.0
aF0.0
aF0.0
asS'tr_hbips_7_overall_footnote'
p446
(lp447
F0.25
aF0.008
aF0.0
ag23
(g27
S'\x00\x00\x00\x00\x00\x00\x00\x00'
p448
tp449
Rp450
aF0.0
aF0.0002
aF0.0993
aF0.1836
aF0.0
aF0.0
aF0.4823
aF0.0
aF0.0
aF0.0
aF0.0
aF0.0
aF0.0
aF0.0
aF0.0
aF0.0
asS'ts_s_tob_2a_percentage'
p451
(lp452
F0.0
aF0.01
aF0.0
ag23
(g27
S'\x00\x00\x00\x00\x00\x00\x00\x00'
p453
tp454
Rp455
aF0.0
aF0.0001
aF0.0
aF0.0
aF0.0001
aF0.0
aF0.0215
aF0.0004
aF0.0
aF0.0
aF0.0
aF0.0
aF0.0
aF0.0
aF0.0
aF0.0
asS'ts_s_hbips_5_overall_percentage_of_total'
p456
(lp457
F0.0
aF0.01
aF0.0
ag23
(g27
S'\x00\x00\x00\x00\x00\x00\x00\x00'
p458
tp459
Rp460
aF0.0
aF0.0001
aF0.0
aF0.0
aF0.0001
aF0.0
aF0.0164
aF0.0008
aF0.0
aF0.0
aF0.0
aF0.0
aF0.0
aF0.0
aF0.0
aF0.0
asS'tr_hbips_3_overall_footnote'
p461
(lp462
F0.25
aF0.008
aF0.0
ag23
(g27
S'\x00\x00\x00\x00\x00\x00\x00\x00'
p463
tp464
Rp465
aF0.0
aF0.0002
aF0.0851
aF0.1694
aF0.0
aF0.0
aF0.4228
aF0.0
aF0.0
aF0.0
aF0.0
aF0.0
aF0.0
aF0.0
aF0.0
aF0.0
asS'tr_hbips_6_overall_percentage_of_total'
p466
(lp467
F0.0
aF0.01
aF0.0
ag23
(g27
S'\x00\x00\x00\x00\x00\x00\x00\x00'
p468
tp469
Rp470
aF0.0
aF0.0001
aF0.0
aF0.0
aF0.0
aF0.0
aF0.0175
aF0.0
aF0.0
aF0.0
aF0.0
aF0.0
aF0.0
aF0.0
aF0.0
aF0.0
asS'ts_s_fuh_7_percentage'
p471
(lp472
F0.0
aF0.01
aF0.0
ag23
(g27
S'\x00\x00\x00\x00\x00\x00\x00\x00'
p473
tp474
Rp475
aF0.0
aF0.0001
aF0.0
aF0.0
aF0.0001
aF0.0
aF0.0155
aF0.0006
aF0.0
aF0.0
aF0.0
aF0.0
aF0.0
aF0.0
aF0.0
aF0.0
asS'tr_hbips_5_overall_percentage_of_total'
p476
(lp477
F0.0
aF0.01
aF0.0
ag23
(g27
S'\x00\x00\x00\x00\x00\x00\x00\x00'
p478
tp479
Rp480
aF0.0
aF0.0001
aF0.0
aF0.0
aF0.0
aF0.0
aF0.0854
aF0.0
aF0.0
aF0.0
aF0.0
aF0.0
aF0.0
aF0.0
aF0.0
aF0.0
asS'tr_hbips_6_overall_footnote'
p481
(lp482
F0.25
aF0.008
aF0.0
ag23
(g27
S'\x00\x00\x00\x00\x00\x00\x00\x00'
p483
tp484
Rp485
aF0.0
aF0.0002
aF0.0804
aF0.1645
aF0.0
aF0.0
aF0.5122
aF0.0
aF0.0
aF0.0
aF0.0
aF0.0
aF0.0
aF0.0
aF0.0
aF0.0
asS'tr_tob_2_percentage'
p486
(lp487
F0.0
aF0.01
aF0.0
ag23
(g27
S'\x00\x00\x00\x00\x00\x00\x00\x00'
p488
tp489
Rp490
aF0.0
aF0.0001
aF0.0
aF0.0
aF0.0
aF0.0
aF0.0473
aF0.0
aF0.0
aF0.0
aF0.0
aF0.0
aF0.0
aF0.0
aF0.0
aF0.0
asS'tr_fuh_30_percentage'
p491
(lp492
F0.0
aF0.01
aF0.0
ag23
(g27
S'\x00\x00\x00\x00\x00\x00\x00\x00'
p493
tp494
Rp495
aF0.0
aF0.0001
aF0.0
aF0.0
aF0.0
aF0.0
aF0.0558
aF0.0
aF0.0
aF0.0
aF0.0
aF0.0
aF0.0
aF0.0
aF0.0
aF0.0
asS'tr_ehr_use_footnote'
p496
(lp497
F0.25
aF0.008
aF0.0
ag23
(g27
S'\x00\x00\x00\x00\x00\x00\x00\x00'
p498
tp499
Rp500
aF0.0
aF0.0002
aF0.0443
aF0.1212
aF0.0
aF0.0
aF0.585
aF0.0
aF0.0
aF0.0
aF0.0
aF0.0
aF0.0
aF0.0
aF0.0
aF0.0
asS'tr_tob_2a_percentage'
p501
(lp502
F0.0
aF0.01
aF0.0
ag23
(g27
S'\x00\x00\x00\x00\x00\x00\x00\x00'
p503
tp504
Rp505
aF0.0
aF0.0001
aF0.0
aF0.0
aF0.0
aF0.0
aF0.1078
aF0.0
aF0.0
aF0.0
aF0.0
aF0.0
aF0.0
aF0.0
aF0.0
aF0.0
asS'tr_fuh_7_percentage'
p506
(lp507
F0.0
aF0.01
aF0.0
ag23
(g27
S'\x00\x00\x00\x00\x00\x00\x00\x00'
p508
tp509
Rp510
aF0.0
aF0.0001
aF0.0
aF0.0
aF0.0
aF0.0
aF0.2432
aF0.0
aF0.0
aF0.0
aF0.0
aF0.0
aF0.0
aF0.0
aF0.0
aF0.0
asS'tr_sub_1_percentage'
p511
(lp512
F0.0
aF0.01
aF0.0
ag23
(g27
S'\x00\x00\x00\x00\x00\x00\x00\x00'
p513
tp514
Rp515
aF0.0
aF0.0001
aF0.0
aF0.0
aF0.0
aF0.0
aF0.0208
aF0.0
aF0.0
aF0.0
aF0.0
aF0.0
aF0.0
aF0.0
aF0.0
aF0.0
asS'ts_s_tob_2_percentage'
p516
(lp517
F0.0
aF0.01
aF0.0
ag23
(g27
S'\x00\x00\x00\x00\x00\x00\x00\x00'
p518
tp519
Rp520
aF0.0
aF0.0001
aF0.0
aF0.0
aF0.0001
aF0.0
aF0.0147
aF0.0007
aF0.0
aF0.0
aF0.0
aF0.0
aF0.0
aF0.0
aF0.0
aF0.0
asS'tr_peoc_assessed_footnote'
p521
(lp522
F0.25
aF0.008
aF0.0
ag23
(g27
S'\x00\x00\x00\x00\x00\x00\x00\x00'
p523
tp524
Rp525
aF0.0
aF0.0002
aF0.0443
aF0.1212
aF0.0
aF0.0
aF0.585
aF0.0
aF0.0
aF0.0
aF0.0
aF0.0
aF0.0
aF0.0
aF0.0
aF0.0
asS'tr_hbips_7_overall_percentage_of_total'
p526
(lp527
F0.0
aF0.01
aF0.0
ag23
(g27
S'\x00\x00\x00\x00\x00\x00\x00\x00'
p528
tp529
Rp530
aF0.0
aF0.0001
aF0.0
aF0.0
aF0.0
aF0.0
aF0.0218
aF0.0
aF0.0
aF0.0
aF0.0
aF0.0
aF0.0
aF0.0
aF0.0
aF0.0
assI14
g0
(tRp531
S'tr_hbips_3_overall_num'
p532
(lp533
F0.0
aF0.02
aF0.0
ag23
(g27
S'\x00\x00\x00\x00\x00\x00\x00\x00'
p534
tp535
Rp536
aF1.0
aF0.0002
aF0.1185
aF0.7736
aF0.0004
aF0.0
aF1.0
aF0.0
aF0.0343
aF0.0
aF0.0
aF0.0
aF0.0
aF0.0
aF0.0
aF0.0
asS'tr_hbips_2_overall_num'
p537
(lp538
F0.0
aF0.02
aF0.0
ag23
(g27
S'\x00\x00\x00\x00\x00\x00\x00\x00'
p539
tp540
Rp541
aF1.0
aF0.0003
aF0.131
aF0.7268
aF0.0005
aF0.0
aF0.7263
aF0.0
aF0.0343
aF0.0
aF0.0
aF0.0
aF0.0
aF0.0
aF0.0
aF0.0
assI15
g0
(tRp542
S'ts_st_no'
p543
(lp544
F0.0
aF1.0
aF0.0
ag23
(g27
S'\x00\x00\x00\x00\x00\x00\x00\x00'
p545
tp546
Rp547
aF1.0
aF0.0258
aF0.0022
aF0.3431
aF0.0038
aF0.0
aF0.0817
aF0.0003
aF0.0042
aF0.0
aF0.0
aF0.0
aF0.0
aF0.0
aF0.0
aF0.0
asS'tr_provider_number'
p548
(lp549
F0.0
aF1.0
aF1.0
ag23
(g27
S'\x00\x00\x00\x00\x00\x00\x00\x00'
p550
tp551
Rp552
aF1.0
aF0.0436
aF0.0005
aF0.0952
aF0.5017
aF0.0017
aF0.0344
aF0.3652
aF0.1886
aF0.0
aF0.0
aF0.0
aF0.0
aF0.0
aF0.0
aF0.0
assI16
g0
(tRp553
S'ts_s_sub_1_percentage'
p554
(lp555
F0.0
aF0.01
aF0.0
ag23
(g27
S'\x00\x00\x00\x00\x00\x00\x00\x00'
p556
tp557
Rp558
aF0.0
aF0.0001
aF0.0
aF0.0
aF0.0002
aF0.0
aF0.0066
aF0.002
aF0.0
aF0.0
aF0.0
aF0.0
aF0.0
aF0.0
aF0.0
aF0.0
asS'ts_s_hie_no_percent'
p559
(lp560
F0.0
aF1.0
aF0.0
ag23
(g27
S'\x00\x00\x00\x00\x00\x00\x00\x00'
p561
tp562
Rp563
aF0.0
aF0.0152
aF0.0002
aF0.1452
aF0.0001
aF0.0
aF0.0135
aF0.0011
aF0.0
aF0.0
aF0.0
aF0.0
aF0.0
aF0.0
aF0.0
aF0.0
asS'ts_s_hie_yes_percent'
p564
(lp565
F0.0
aF1.0
aF0.0
ag23
(g27
S'\x00\x00\x00\x00\x00\x00\x00\x00'
p566
tp567
Rp568
aF0.0
aF0.0146
aF0.0002
aF0.1509
aF0.0001
aF0.0
aF0.0244
aF0.0
aF0.0
aF0.0
aF0.0
aF0.0
aF0.0
aF0.0
aF0.0
aF0.0
asS'ts_s_hbips_7_overall_percentage_of_total'
p569
(lp570
F0.0
aF0.01
aF0.0
ag23
(g27
S'\x00\x00\x00\x00\x00\x00\x00\x00'
p571
tp572
Rp573
aF0.0
aF0.0001
aF0.0
aF0.0
aF0.0002
aF0.0
aF0.0085
aF0.0013
aF0.0
aF0.0
aF0.0
aF0.0
aF0.0
aF0.0
aF0.0
aF0.0
asS'ts_s_tob_1_percentage'
p574
(lp575
F0.0
aF0.01
aF0.0
ag23
(g27
S'\x00\x00\x00\x00\x00\x00\x00\x00'
p576
tp577
Rp578
aF0.0
aF0.0001
aF0.0
aF0.0
aF0.0002
aF0.0
aF0.0052
aF0.0023
aF0.0
aF0.0
aF0.0
aF0.0
aF0.0
aF0.0
aF0.0
aF0.0
asS'ts_s_hcp_percentage'
p579
(lp580
F0.0
aF0.01
aF0.0
ag23
(g27
S'\x00\x00\x00\x00\x00\x00\x00\x00'
p581
tp582
Rp583
aF0.0
aF0.0001
aF0.0
aF0.0
aF0.0002
aF0.0
aF0.0051
aF0.0023
aF0.0
aF0.0
aF0.0
aF0.0
aF0.0
aF0.0
aF0.0
aF0.0
asS'ts_s_hbips_3_overall_rate_per_1000'
p584
(lp585
F0.0
aF1.0
aF0.0
ag23
(g27
S'\x00\x00\x00\x00\x00\x00\x00\x00'
p586
tp587
Rp588
aF0.0
aF0.0075
aF0.0
aF0.0
aF0.0
aF0.0
aF0.1536
aF0.0
aF0.0
aF0.0
aF0.0
aF0.0
aF0.0
aF0.0
aF0.0
aF0.0
asS'ts_s_imm_2_percentage'
p589
(lp590
F0.0
aF0.01
aF0.0
ag23
(g27
S'\x00\x00\x00\x00\x00\x00\x00\x00'
p591
tp592
Rp593
aF0.0
aF0.0001
aF0.0
aF0.0
aF0.0001
aF0.0
aF0.0105
aF0.0012
aF0.0
aF0.0
aF0.0
aF0.0
aF0.0
aF0.0
aF0.0
aF0.0
asS'ts_s_hbips_2_overall_rate_per_1000'
p594
(lp595
F0.0
aF1.0
aF0.0
ag23
(g27
S'\x00\x00\x00\x00\x00\x00\x00\x00'
p596
tp597
Rp598
aF0.0
aF0.0075
aF0.0
aF0.0
aF0.0
aF0.0
aF0.0962
aF0.0
aF0.0
aF0.0
aF0.0
aF0.0
aF0.0
aF0.0
aF0.0
aF0.0
asS'ts_s_fuh_30_percentage'
p599
(lp600
F0.0
aF0.01
aF0.0
ag23
(g27
S'\x00\x00\x00\x00\x00\x00\x00\x00'
p601
tp602
Rp603
aF0.0
aF0.0001
aF0.0
aF0.0
aF0.0001
aF0.0
aF0.0109
aF0.0009
aF0.0
aF0.0
aF0.0
aF0.0
aF0.0
aF0.0
aF0.0
aF0.0
asS'ts_s_hbips_6_overall_percentage_of_total'
p604
(lp605
F0.0
aF0.01
aF0.0
ag23
(g27
S'\x00\x00\x00\x00\x00\x00\x00\x00'
p606
tp607
Rp608
aF0.0
aF0.0001
aF0.0
aF0.0
aF0.0002
aF0.0
aF0.0071
aF0.0014
aF0.0
aF0.0
aF0.0
aF0.0
aF0.0
aF0.0
aF0.0
aF0.0
assI19
g0
(tRp609
S'tr_fuh_30_footnote'
p610
(lp611
F0.25
aF0.008
aF0.0
ag23
(g27
S'\x00\x00\x00\x00\x00\x00\x00\x00'
p612
tp613
Rp614
aF0.0
aF0.0002
aF0.6028
aF0.5132
aF0.0
aF0.0
aF0.1789
aF0.0
aF0.0
aF0.0
aF0.0
aF0.0
aF0.0
aF0.0
aF0.0
aF0.0
asS'tr_hbips_5_overall_footnote'
p615
(lp616
F0.25
aF0.008
aF0.0
ag23
(g27
S'\x00\x00\x00\x00\x00\x00\x00\x00'
p617
tp618
Rp619
aF0.0
aF0.0001
aF1.0
aF1.0
aF0.0
aF0.0
aF0.1019
aF0.0
aF0.0
aF0.0
aF0.0
aF0.0
aF0.0
aF0.0
aF0.0
aF0.0
asS'tr_tob_2a_footnote'
p620
(lp621
F0.25
aF0.008
aF0.0
ag23
(g27
S'\x00\x00\x00\x00\x00\x00\x00\x00'
p622
tp623
Rp624
aF0.0
aF0.0002
aF0.8095
aF0.6464
aF0.0
aF0.0
aF0.1634
aF0.0
aF0.0
aF0.0
aF0.0
aF0.0
aF0.0
aF0.0
aF0.0
aF0.0
asS'tr_fuh_7_footnote'
p625
(lp626
F0.25
aF0.008
aF0.0
ag23
(g27
S'\x00\x00\x00\x00\x00\x00\x00\x00'
p627
tp628
Rp629
aF0.0
aF0.0002
aF0.8641
aF0.6884
aF0.0
aF0.0
aF0.1365
aF0.0
aF0.0
aF0.0
aF0.0
aF0.0
aF0.0
aF0.0
aF0.0
aF0.0
asS'tr_tob_2_footnote'
p630
(lp631
F0.25
aF0.008
aF0.0
ag23
(g27
S'\x00\x00\x00\x00\x00\x00\x00\x00'
p632
tp633
Rp634
aF0.0
aF0.0002
aF0.5333
aF0.4722
aF0.0
aF0.0
aF0.2113
aF0.0
aF0.0
aF0.0
aF0.0
aF0.0
aF0.0
aF0.0
aF0.0
aF0.0
assI20
g0
(tRp635
S'tr_sub_1_footnote'
p636
(lp637
F0.25
aF0.008
aF0.0
ag23
(g27
S'\x00\x00\x00\x00\x00\x00\x00\x00'
p638
tp639
Rp640
aF0.0
aF0.0002
aF0.1778
aF0.2495
aF0.0
aF0.0
aF0.3418
aF0.0
aF0.0
aF0.0
aF0.0
aF0.0
aF0.0
aF0.0
aF0.0
aF0.0
asS'tr_tob_1_footnote'
p641
(lp642
F0.25
aF0.008
aF0.0
ag23
(g27
S'\x00\x00\x00\x00\x00\x00\x00\x00'
p643
tp644
Rp645
aF0.0
aF0.0002
aF0.139
aF0.2189
aF0.0
aF0.0
aF0.3639
aF0.0
aF0.0
aF0.0
aF0.0
aF0.0
aF0.0
aF0.0
aF0.0
aF0.0
asS'tr_hcp_footnote'
p646
(lp647
F0.25
aF0.008
aF0.0
ag23
(g27
S'\x00\x00\x00\x00\x00\x00\x00\x00'
p648
tp649
Rp650
aF0.0
aF0.0002
aF0.2245
aF0.2832
aF0.0
aF0.0
aF0.295
aF0.0
aF0.0
aF0.0
aF0.0
aF0.0
aF0.0
aF0.0
aF0.0
aF0.0
asS'tr_imm_2_footnote'
p651
(lp652
F0.25
aF0.008
aF0.0
ag23
(g27
S'\x00\x00\x00\x00\x00\x00\x00\x00'
p653
tp654
Rp655
aF0.0
aF0.0002
aF0.2245
aF0.2832
aF0.0
aF0.0
aF0.3276
aF0.0
aF0.0
aF0.0
aF0.0
aF0.0
aF0.0
aF0.0
aF0.0
aF0.0
assI21
g0
(tRp656
S'ts_st_name'
p657
(lp658
F0.5
aF1.0
aF0.0
ag23
(g27
S'\x00\x00\x00\x00\x00\x00\x00\x00'
p659
tp660
Rp661
aF1.0
aF0.1023
aF0.0488
aF0.4123
aF0.0
aF0.0
aF0.0
aF0.0
aF0.0
aF0.7871
aF0.6211
aF0.0087
aF0.993
aF0.0
aF0.0
aF0.0
assI22
g0
(tRp662
S'tr_tob_2_2a_measure_desc'
p663
(lp664
F0.5
aF1.0
aF0.0
ag23
(g27
S'\x00\x00\x00\x00\x00\x00\x00\x00'
p665
tp666
Rp667
aF0.0
aF0.3582
aF0.0
aF0.0
aF0.0
aF0.0
aF0.0
aF0.0
aF0.0
aF0.6876
aF0.7235
aF0.0
aF1.0
aF0.0
aF1.0
aF0.0
assI23
g0
(tRp668
S'tr_city'
p669
(lp670
F0.5
aF1.0
aF0.0
ag23
(g27
S'\x00\x00\x00\x00\x00\x00\x00\x00'
p671
tp672
Rp673
aF0.0
aF0.0655
aF0.0241
aF0.452
aF0.0
aF0.0
aF0.0
aF0.0
aF0.0
aF0.1535
aF0.122
aF0.0
aF1.0
aF0.0
aF0.0
aF0.0031
asS'tr_country_name'
p674
(lp675
F0.5
aF1.0
aF0.0
ag23
(g27
S'\x00\x00\x00\x00\x00\x00\x00\x00'
p676
tp677
Rp678
aF0.0
aF0.0575
aF0.0263
aF0.5384
aF0.0
aF0.0
aF0.0
aF0.0
aF0.0
aF0.121
aF0.0977
aF0.0
aF1.0
aF0.0
aF0.0
aF0.0155
asS'tr_hie_response'
p679
(lp680
F0.5
aF1.0
aF0.0
ag23
(g27
S'\x00\x00\x00\x00\x00\x00\x00\x00'
p681
tp682
Rp683
aF0.0
aF0.0185
aF0.0053
aF0.7487
aF0.0
aF0.0
aF0.0
aF0.0
aF0.0
aF0.0242
aF0.0191
aF0.0
aF1.0
aF0.0
aF0.0
aF0.0
asS'tr_peoc_assessed_response'
p684
(lp685
F0.5
aF1.0
aF0.0
ag23
(g27
S'\x00\x00\x00\x00\x00\x00\x00\x00'
p686
tp687
Rp688
aF0.0
aF0.0215
aF0.0047
aF0.6136
aF0.0
aF0.0
aF0.0
aF0.0
aF0.0
aF0.0209
aF0.0165
aF0.0
aF1.0
aF0.0
aF0.0
aF0.0
assI24
g0
(tRp689
S'tr_state'
p690
(lp691
F0.5
aF0.004
aF0.0
ag23
(g27
S'\x00\x00\x00\x00\x00\x00\x00\x00'
p692
tp693
Rp694
aF0.0
aF0.0001
aF0.0
aF0.0
aF0.0
aF0.0
aF0.0
aF0.0
aF0.0
aF0.0
aF0.0
aF0.0
aF1.0
aF0.0
aF0.0
aF0.0
asS'ts_state'
p695
(lp696
F0.5
aF0.004
aF1.0
ag23
(g27
S'\x00\x00\x00\x00\x00\x00\x00\x00'
p697
tp698
Rp699
aF1.0
aF0.0001
aF0.0
aF0.0
aF0.0
aF0.0
aF0.0
aF0.0
aF0.0
aF0.0
aF0.0
aF0.0
aF1.0
aF0.0
aF0.0
aF0.0
assI28
g0
(tRp700
S'tr_hbips_6_measure_description'
p701
(lp702
F0.5
aF1.0
aF0.0
ag23
(g27
S'\x00\x00\x00\x00\x00\x00\x00\x00'
p703
tp704
Rp705
aF0.0
aF0.3209
aF0.0
aF0.0
aF0.0
aF0.0
aF0.0
aF0.0
aF0.0
aF0.5116
aF0.5048
aF0.0
aF1.0
aF0.0
aF0.0
aF0.7214
asS'ts_s_hbips_6_measure_description'
p706
(lp707
F0.5
aF1.0
aF0.0
ag23
(g27
S'\x00\x00\x00\x00\x00\x00\x00\x00'
p708
tp709
Rp710
aF0.0
aF0.3209
aF0.0
aF0.0
aF0.0
aF0.0
aF0.0
aF0.0
aF0.0
aF0.5116
aF0.5048
aF0.0
aF1.0
aF0.0
aF0.0
aF0.7214
asS'tr_hbips_2_measure_description'
p711
(lp712
F0.5
aF1.0
aF0.0
ag23
(g27
S'\x00\x00\x00\x00\x00\x00\x00\x00'
p713
tp714
Rp715
aF0.0
aF0.2313
aF0.0
aF0.0
aF0.0
aF0.0
aF0.0
aF0.0
aF0.0
aF0.5325
aF0.5599
aF0.0
aF1.0
aF0.0
aF0.0
aF1.0
asS'ts_s_hbips_2_measure_description'
p716
(lp717
F0.5
aF1.0
aF0.0
ag23
(g27
S'\x00\x00\x00\x00\x00\x00\x00\x00'
p718
tp719
Rp720
aF0.0
aF0.2313
aF0.0
aF0.0
aF0.0
aF0.0
aF0.0
aF0.0
aF0.0
aF0.5325
aF0.5599
aF0.0
aF1.0
aF0.0
aF0.0
aF1.0
assI29
g0
(tRp721
S'tr_fuh_measure_description'
p722
(lp723
F0.5
aF1.0
aF0.0
ag23
(g27
S'\x00\x00\x00\x00\x00\x00\x00\x00'
p724
tp725
Rp726
aF0.0
aF1.0
aF0.0
aF0.0
aF0.0
aF0.0
aF0.0
aF0.0
aF0.0
aF0.78
aF0.842
aF0.056
aF0.9552
aF0.0
aF0.7163
aF0.6935
asS'ts_s_fuh_measure_description'
p727
(lp728
F0.5
aF1.0
aF0.0
ag23
(g27
S'\x00\x00\x00\x00\x00\x00\x00\x00'
p729
tp730
Rp731
aF0.0
aF1.0
aF0.0
aF0.0
aF0.0
aF0.0
aF0.0
aF0.0
aF0.0
aF0.78
aF0.842
aF0.056
aF0.9552
aF0.0
aF0.7163
aF0.6935
assI30
g0
(tRp732
S'ts_s_hbips_3_measure_description'
p733
(lp734
F0.5
aF1.0
aF0.0
ag23
(g27
S'\x00\x00\x00\x00\x00\x00\x00\x00'
p735
tp736
Rp737
aF0.0
aF0.1343
aF0.0
aF0.0
aF0.0
aF0.0
aF0.0
aF0.0
aF0.0
aF0.6111
aF0.4822
aF0.0
aF1.0
aF0.0
aF0.0
aF0.0
asS'tr_hbips_3_measure_description'
p738
(lp739
F0.5
aF1.0
aF0.0
ag23
(g27
S'\x00\x00\x00\x00\x00\x00\x00\x00'
p740
tp741
Rp742
aF0.0
aF0.1343
aF0.0
aF0.0
aF0.0
aF0.0
aF0.0
aF0.0
aF0.0
aF0.6111
aF0.4822
aF0.0
aF1.0
aF0.0
aF0.0
aF0.0
asS'tr_peoc_measure_description'
p743
(lp744
F0.5
aF1.0
aF0.0
ag23
(g27
S'\x00\x00\x00\x00\x00\x00\x00\x00'
p745
tp746
Rp747
aF0.0
aF0.2985
aF0.0
aF0.0
aF0.0
aF0.0
aF0.0
aF0.0
aF0.0
aF0.6876
aF0.5425
aF0.0
aF1.0
aF0.0
aF0.0
aF0.0
asS'ts_s_ehr_use_measure_description'
p748
(lp749
F0.5
aF1.0
aF0.0
ag23
(g27
S'\x00\x00\x00\x00\x00\x00\x00\x00'
p750
tp751
Rp752
aF0.0
aF0.3134
aF0.0
aF0.0
aF0.0
aF0.0
aF0.0
aF0.0
aF0.0
aF0.9169
aF0.7235
aF0.0
aF1.0
aF0.0
aF0.0
aF0.0
asS'ts_s_peoc_measure_description'
p753
(lp754
F0.5
aF1.0
aF0.0
ag23
(g27
S'\x00\x00\x00\x00\x00\x00\x00\x00'
p755
tp756
Rp757
aF0.0
aF0.2985
aF0.0
aF0.0
aF0.0
aF0.0
aF0.0
aF0.0
aF0.0
aF0.6876
aF0.5425
aF0.0
aF1.0
aF0.0
aF0.0
aF0.0
asS'tr_ehr_use_measure_description'
p758
(lp759
F0.5
aF1.0
aF0.0
ag23
(g27
S'\x00\x00\x00\x00\x00\x00\x00\x00'
p760
tp761
Rp762
aF0.0
aF0.2537
aF0.0
aF0.0
aF0.0
aF0.0
aF0.0
aF0.0
aF0.0
aF0.8091
aF0.6385
aF0.0
aF1.0
aF0.0
aF0.0
aF0.0
asS'ts_tob_2_2a_measure_desc'
p763
(lp764
F0.5
aF1.0
aF0.0
ag23
(g27
S'\x00\x00\x00\x00\x00\x00\x00\x00'
p765
tp766
Rp767
aF0.0
aF0.316
aF0.0276
aF0.1003
aF0.0
aF0.0
aF0.0
aF0.0
aF0.0
aF0.6744
aF0.5716
aF0.0
aF1.0
aF0.0
aF0.2163
aF0.0
assI31
g0
(tRp768
S'tr_hospital_name'
p769
(lp770
F0.5
aF1.0
aF0.0
ag23
(g27
S'\x00\x00\x00\x00\x00\x00\x00\x00'
p771
tp772
Rp773
aF0.0
aF0.2118
aF0.2526
aF0.4526
aF0.0
aF0.0
aF0.0
aF0.0
aF0.0
aF0.5501
aF0.4588
aF0.0001
aF0.9999
aF0.0015
aF0.0048
aF0.0619
asS'tr_ehr_use_response'
p774
(lp775
F0.5
aF1.0
aF0.0
ag23
(g27
S'\x00\x00\x00\x00\x00\x00\x00\x00'
p776
tp777
Rp778
aF0.0
aF0.1569
aF0.0276
aF0.2019
aF0.0
aF0.0
aF0.0
aF0.0
aF0.0
aF0.6744
aF0.5369
aF0.0
aF1.0
aF0.0
aF0.0
aF0.0341
asS'tr_address'
p779
(lp780
F0.5
aF1.0
aF0.0
ag23
(g27
S'\x00\x00\x00\x00\x00\x00\x00\x00'
p781
tp782
Rp783
aF0.0
aF0.153
aF0.1083
aF0.4103
aF0.0
aF0.0
aF0.0
aF0.0
aF0.0
aF1.0
aF0.8086
aF0.2382
aF0.8094
aF0.0005
aF0.0048
aF0.0186
assI36
g0
(tRp784
S'ts_s_hbips_7_measure_description'
p785
(lp786
F0.5
aF1.0
aF0.0
ag23
(g27
S'\x00\x00\x00\x00\x00\x00\x00\x00'
p787
tp788
Rp789
aF0.0
aF0.7239
aF0.0
aF0.0
aF0.0
aF0.0
aF0.0
aF0.0
aF0.0
aF0.7371
aF0.6263
aF0.0
aF1.0
aF0.0
aF0.0
aF0.3189
asS'tr_hbips_7_measure_description'
p790
(lp791
F0.5
aF1.0
aF0.0
ag23
(g27
S'\x00\x00\x00\x00\x00\x00\x00\x00'
p792
tp793
Rp794
aF0.0
aF0.7239
aF0.0
aF0.0
aF0.0
aF0.0
aF0.0
aF0.0
aF0.0
aF0.7371
aF0.6263
aF0.0
aF1.0
aF0.0
aF0.0
aF0.3189
asS'ts_s_hbips_5_measure_description'
p795
(lp796
F0.5
aF1.0
aF0.0
ag23
(g27
S'\x00\x00\x00\x00\x00\x00\x00\x00'
p797
tp798
Rp799
aF0.0
aF0.6567
aF0.0
aF0.0
aF0.0
aF0.0
aF0.0
aF0.0
aF0.0
aF0.5
aF0.3945
aF0.0
aF1.0
aF0.0
aF0.0
aF0.0
asS'tr_hbips_5_measure_description'
p800
(lp801
F0.5
aF1.0
aF0.0
ag23
(g27
S'\x00\x00\x00\x00\x00\x00\x00\x00'
p802
tp803
Rp804
aF0.0
aF0.6567
aF0.0
aF0.0
aF0.0
aF0.0
aF0.0
aF0.0
aF0.0
aF0.5
aF0.3945
aF0.0
aF1.0
aF0.0
aF0.0
aF0.0
assI37
g0
(tRp805
S'tr_hcp_measure_description'
p806
(lp807
F0.5
aF1.0
aF0.0
ag23
(g27
S'\x00\x00\x00\x00\x00\x00\x00\x00'
p808
tp809
Rp810
aF0.0
aF0.3134
aF0.0
aF0.0
aF0.0
aF0.0
aF0.0
aF0.0
aF0.0
aF0.3927
aF0.3099
aF0.0
aF1.0
aF0.0
aF0.0
aF0.0
asS'tr_sub_1_measure_description'
p811
(lp812
F0.5
aF1.0
aF0.0
ag23
(g27
S'\x00\x00\x00\x00\x00\x00\x00\x00'
p813
tp814
Rp815
aF0.0
aF0.1567
aF0.0
aF0.0
aF0.0
aF0.0
aF0.0
aF0.0
aF0.0
aF0.5237
aF0.4132
aF0.0
aF1.0
aF0.0
aF0.0
aF0.0
asS'ts_s_hie_measure_description'
p816
(lp817
F0.5
aF1.0
aF0.0
ag23
(g27
S'\x00\x00\x00\x00\x00\x00\x00\x00'
p818
tp819
Rp820
aF0.0
aF0.3881
aF0.0
aF0.0
aF0.0
aF0.0
aF0.0
aF0.0
aF0.0
aF0.5292
aF0.4175
aF0.0
aF1.0
aF0.0
aF0.0
aF0.0
asS'ts_s_imm_2_measure_description'
p821
(lp822
F0.5
aF1.0
aF0.0
ag23
(g27
S'\x00\x00\x00\x00\x00\x00\x00\x00'
p823
tp824
Rp825
aF0.0
aF0.1642
aF0.0
aF0.0
aF0.0
aF0.0
aF0.0
aF0.0
aF0.0
aF0.2503
aF0.1975
aF0.0
aF1.0
aF0.0
aF0.0
aF0.0
asS'ts_s_sub_1_measure_description'
p826
(lp827
F0.5
aF1.0
aF0.0
ag23
(g27
S'\x00\x00\x00\x00\x00\x00\x00\x00'
p828
tp829
Rp830
aF0.0
aF0.1567
aF0.0
aF0.0
aF0.0
aF0.0
aF0.0
aF0.0
aF0.0
aF0.5237
aF0.4132
aF0.0
aF1.0
aF0.0
aF0.0
aF0.0
asS'ts_s_hcp_measure_description'
p831
(lp832
F0.5
aF1.0
aF0.0
ag23
(g27
S'\x00\x00\x00\x00\x00\x00\x00\x00'
p833
tp834
Rp835
aF0.0
aF0.3134
aF0.0
aF0.0
aF0.0
aF0.0
aF0.0
aF0.0
aF0.0
aF0.3927
aF0.3099
aF0.0
aF1.0
aF0.0
aF0.0
aF0.0
asS'tr_hie_measure_description'
p836
(lp837
F0.5
aF1.0
aF0.0
ag23
(g27
S'\x00\x00\x00\x00\x00\x00\x00\x00'
p838
tp839
Rp840
aF0.0
aF0.3881
aF0.0
aF0.0
aF0.0
aF0.0
aF0.0
aF0.0
aF0.0
aF0.5292
aF0.4175
aF0.0
aF1.0
aF0.0
aF0.0
aF0.0
asS'ts_s_tob_1_measure_description'
p841
(lp842
F0.5
aF1.0
aF0.0
ag23
(g27
S'\x00\x00\x00\x00\x00\x00\x00\x00'
p843
tp844
Rp845
aF0.0
aF0.1567
aF0.0
aF0.0
aF0.0
aF0.0
aF0.0
aF0.0
aF0.0
aF0.5237
aF0.4132
aF0.0
aF1.0
aF0.0
aF0.0
aF0.0
asS'tr_imm_2_measure_description'
p846
(lp847
F0.5
aF1.0
aF0.0
ag23
(g27
S'\x00\x00\x00\x00\x00\x00\x00\x00'
p848
tp849
Rp850
aF0.0
aF0.1642
aF0.0
aF0.0
aF0.0
aF0.0
aF0.0
aF0.0
aF0.0
aF0.2503
aF0.1975
aF0.0
aF1.0
aF0.0
aF0.0
aF0.0
asS'tr_tob_1_measure_description'
p851
(lp852
F0.5
aF1.0
aF0.0
ag23
(g27
S'\x00\x00\x00\x00\x00\x00\x00\x00'
p853
tp854
Rp855
aF0.0
aF0.1567
aF0.0
aF0.0
aF0.0
aF0.0
aF0.0
aF0.0
aF0.0
aF0.5237
aF0.4132
aF0.0
aF1.0
aF0.0
aF0.0
aF0.0
ass.