(dp0
S's_fuh_measure_end_date'
p1
(lp2
I4
aI4
aI0
aI0
aI0
aF28.1081
aF0.0
aF0.0
aI0
aI0
aI0
aI0
aI0
aF0.0
aF0.2
aF0.8
aF0.2
asS's_flu_season_start_date'
p3
(lp4
I4
aI4
aI0
aI0
aI0
aF28.1081
aF0.0
aF0.0
aI0
aI0
aI0
aI0
aI0
aF0.0
aF0.2
aF0.8
aF0.2
asS's_tob_2_percentage'
p5
(lp6
I2
aI500
aI0
aI0
aI0
aF1736.4865
aF0.0001
aF0.0472
aI0
aI0
aI0
aI0
aI0
aF0.0
aF0.2023
aF0.7977
aF0.2023
asS's_tob_1_measure_description'
p7
(lp8
I2
aI500
aI0
aI0
aI0
aF7378.3784
aF0.0
aF0.0
aI0
aI0
aI0
aI0
aI0
aF0.0952
aF0.0952
aF0.0
aF1.0
asS's_ehr_use_measure_description'
p9
(lp10
I2
aI500
aI0
aI0
aI0
aF14756.7568
aF0.0
aF0.0
aI0
aI0
aI0
aI0
aI0
aF0.1667
aF0.1667
aF0.0
aF1.0
asS's_sub_1_numerator'
p11
(lp12
I2
aI500
aI0
aI0
aI1
aF1520.2703
aF0.0007
aF0.1413
aI0
aI0
aI0
aI0
aI0
aF0.0
aF0.0
aF1.0
aF0.0
asS's_ehr_certified_count'
p13
(lp14
I1
aI4
aI0
aI0
aI0
aF4.2162
aF0.0625
aF0.3333
aF11.0
aF2.027558887118798
aF0.8626
aF0.0
aF38.0
aI0
aI0
aI0
aI0
asS's_hbips_7_measure_description'
p15
(lp16
I2
aI500
aI0
aI0
aI0
aF34081.0811
aF0.0
aF0.0
aI0
aI0
aI0
aI0
aI0
aF0.134
aF0.1443
aF0.0
aF1.0
asS's_hbips_2_overall_rate_per_1000'
p17
(lp18
I0
aI500
aI0
aI0
aI0
aF351.3514
aF0.0
aF0.0
aF0.4423076923076923
aF0.009181554392353209
aF1.5622
aF0.0
aF3.0
aI0
aI0
aI0
aI0
asS's_ehr_certified_percentage'
p19
(lp20
I0
aI500
aI0
aI0
aI0
aF689.1892
aF0.0001
aF0.098
aF38.42307692307692
aF4.850847746927629
aF0.4134
aF0.0
aF80.0
aI0
aI0
aI0
aI0
asS's_ehr_paper_percentage'
p21
(lp22
I0
aI500
aI0
aI0
aI0
aF709.4595
aF0.0
aF0.068
aF58.07692307692308
aF4.173702776513427
aF0.2537
aF20.0
aF100.0
aI0
aI0
aI0
aI0
asS's_flu_season_end_date'
p23
(lp24
I4
aI4
aI0
aI0
aI0
aF28.1081
aF0.0
aF0.0
aI0
aI0
aI0
aI0
aI0
aF0.0
aF0.2
aF0.8
aF0.2
asS's_hbips_3_overall_rate_per_1000'
p25
(lp26
I0
aI500
aI0
aI0
aI0
aF351.3514
aF0.0
aF0.0
aF0.5
aF0.029955621301775148
aF2.4962
aF0.0
aF7.0
aI0
aI0
aI0
aI0
asS's_tob_2a_percentage'
p27
(lp28
I2
aI500
aI0
aI0
aI0
aF1709.4595
aF0.0005
aF0.099
aI0
aI0
aI0
aI0
aI0
aF0.0
aF0.2016
aF0.7984
aF0.2016
asS's_tob_1_numerator'
p29
(lp30
I2
aI500
aI0
aI0
aI1
aF1540.5405
aF0.0006
aF0.1277
aI0
aI0
aI0
aI0
aI0
aF0.0
aF0.0
aF1.0
aF0.0
asS's_tob_2a_numerator'
p31
(lp32
I2
aI500
aI0
aI0
aI1
aF1216.2162
aF0.0007
aF0.1743
aI0
aI0
aI0
aI0
aI0
aF0.0
aF0.0
aF1.0
aF0.0
asS's_hbips_6_overall_den'
p33
(lp34
I2
aI500
aI0
aI0
aI1
aF1587.8378
aF0.0006
aF0.1188
aI0
aI0
aI0
aI0
aI0
aF0.0
aF0.0
aF1.0
aF0.0
asS's_hbips_3_overall_den'
p35
(lp36
I2
aI500
aI0
aI0
aI1
aF2094.5946
aF0.0007
aF0.0985
aI0
aI0
aI0
aI0
aI0
aF0.0
aF0.0
aF1.0
aF0.0
asS's_hbips_5_overall_num'
p37
(lp38
I2
aI500
aI0
aI0
aI1
aF1047.2973
aF0.0009
aF0.223
aI0
aI0
aI0
aI0
aI0
aF0.0
aF0.0
aF1.0
aF0.0
asS'tob_2_2a_measure_desc'
p39
(lp40
I2
aI500
aI0
aI0
aI0
aF14878.3784
aF0.0152
aF0.0651
aI0
aI0
aI0
aI0
aI0
aF0.1226
aF0.1317
aF0.0
aF1.0
asS's_hbips_3_overall_num'
p41
(lp42
I2
aI500
aI0
aI0
aI1
aF2371.6216
aF0.0013
aF0.1194
aI0
aI0
aI0
aI0
aI0
aF0.0
aF0.1481
aF0.8519
aF0.1481
asS's_tob_2_2a_denominator'
p43
(lp44
I2
aI500
aI0
aI0
aI1
aF1425.6757
aF0.0007
aF0.1483
aI0
aI0
aI0
aI0
aI0
aF0.0
aF0.0
aF1.0
aF0.0
asS's_fuh_measure_start_date'
p45
(lp46
I4
aI4
aI0
aI0
aI0
aF28.1081
aF0.0
aF0.0
aI0
aI0
aI0
aI0
aI0
aF0.0
aF0.2
aF0.8
aF0.2
asS's_hcp_denominator'
p47
(lp48
I2
aI500
aI0
aI0
aI1
aF1952.7027
aF0.0006
aF0.0961
aI0
aI0
aI0
aI0
aI0
aF0.0
aF0.0
aF1.0
aF0.0
asS's_hie_no_percent'
p49
(lp50
I0
aI500
aI0
aI0
aI0
aF716.2162
aF0.0001
aF0.0943
aF64.3076923076923
aF3.8517296313154303
aF0.2201
aF29.0
aF100.0
aI0
aI0
aI0
aI0
asS's_peoc_measure_description'
p51
(lp52
I2
aI500
aI0
aI0
aI0
aF14054.0541
aF0.0
aF0.0
aI0
aI0
aI0
aI0
aI0
aF0.125
aF0.125
aF0.0
aF1.0
asS's_peoc_no_count'
p53
(lp54
I1
aI4
aI0
aI0
aI0
aF3.7297
aF0.055
aF0.3535
aF7.0
aF0.95211510013655
aF0.9504
aF0.0
aF25.0
aI0
aI0
aI0
aI0
asS's_hie_yes_count'
p55
(lp56
I1
aI4
aI0
aI0
aI0
aF4.0541
aF0.0617
aF0.3444
aF11.0
aF2.129629893035958
aF0.9228
aF0.0
aF44.0
aI0
aI0
aI0
aI0
asS's_imm_2_denominator'
p57
(lp58
I2
aI500
aI0
aI0
aI1
aF1493.2432
aF0.0007
aF0.1375
aI0
aI0
aI0
aI0
aI0
aF0.0
aF0.0
aF1.0
aF0.0
asS's_fuh_7_percentage'
p59
(lp60
I0
aI500
aI0
aI0
aI0
aF702.7027
aF0.0
aF0.0
aF30.78846153846154
aF1.1600122325898954
aF0.2523
aF17.0
aF49.0
aI0
aI0
aI0
aI0
asS's_tob_1_percentage'
p61
(lp62
I0
aI500
aI0
aI0
aI0
aF702.7027
aF0.0
aF0.0
aF90.73076923076923
aF1.127304278561675
aF0.0844
aF64.0
aF99.0
aI0
aI0
aI0
aI0
asS's_imm_2_percentage'
p63
(lp64
I0
aI500
aI0
aI0
aI0
aF702.7027
aF0.0
aF0.0
aF73.6923076923077
aF3.0551319981793355
aF0.171
aF32.0
aF95.0
aI0
aI0
aI0
aI0
asS'state'
p65
(lp66
I2
aI2
aI1
aI0
aI1
aF2.8108
aF0.0
aF0.0
aI0
aI0
aI0
aI0
aI0
aF0.0
aF0.0
aF0.0
aF1.0
asS's_hbips_2_overall_num'
p67
(lp68
I2
aI500
aI0
aI0
aI1
aF2371.6216
aF0.0018
aF0.139
aI0
aI0
aI0
aI0
aI0
aF0.0
aF0.1481
aF0.8519
aF0.1481
asS's_hbips_2_measure_description'
p69
(lp70
I2
aI500
aI0
aI0
aI0
aF10891.8919
aF0.0
aF0.0
aI0
aI0
aI0
aI0
aI0
aF0.0968
aF0.129
aF0.0
aF1.0
asS's_hbips_7_overall_percentage_of_total'
p71
(lp72
I0
aI500
aI0
aI0
aI0
aF702.7027
aF0.0
aF0.0
aF81.13461538461539
aF2.4097846495220754
aF0.138
aF35.0
aF95.0
aI0
aI0
aI0
aI0
asS's_fuh_30_percentage'
p73
(lp74
I0
aI500
aI0
aI0
aI0
aF702.7027
aF0.0
aF0.0
aF55.15384615384615
aF1.8198111060537097
aF0.1764
aF26.0
aF75.0
aI0
aI0
aI0
aI0
asS's_hbips_3_measure_description'
p75
(lp76
I2
aI500
aI0
aI0
aI0
aF6324.3243
aF0.0
aF0.0
aI0
aI0
aI0
aI0
aI0
aF0.1111
aF0.1111
aF0.0
aF1.0
asS's_hbips_5_overall_percentage_of_total'
p77
(lp78
I2
aI500
aI0
aI0
aI0
aF1675.6757
aF0.0008
aF0.134
aI0
aI0
aI0
aI0
aI0
aF0.0
aF0.2016
aF0.7984
aF0.2016
asS's_hcp_measure_description'
p79
(lp80
I2
aI500
aI0
aI0
aI0
aF14756.7568
aF0.0
aF0.0
aI0
aI0
aI0
aI0
aI0
aF0.0714
aF0.0714
aF0.0
aF1.0
asS's_sub_1_measure_description'
p81
(lp82
I2
aI500
aI0
aI0
aI0
aF7378.3784
aF0.0
aF0.0
aI0
aI0
aI0
aI0
aI0
aF0.0952
aF0.0952
aF0.0
aF1.0
asS's_tob_2_2a__denominator'
p83
(lp84
I2
aI500
aI0
aI0
aI1
aF1425.6757
aF0.0007
aF0.1483
aI0
aI0
aI0
aI0
aI0
aF0.0
aF0.0
aF1.0
aF0.0
asS's_fuh_7_numerator'
p85
(lp86
I2
aI500
aI0
aI0
aI1
aF1141.8919
aF0.0008
aF0.1896
aI0
aI0
aI0
aI0
aI0
aF0.0
aF0.0
aF1.0
aF0.0
asS's_hbips_2_overall_den'
p87
(lp88
I2
aI500
aI0
aI0
aI1
aF2094.5946
aF0.0007
aF0.0985
aI0
aI0
aI0
aI0
aI0
aF0.0
aF0.0
aF1.0
aF0.0
asS'end_date'
p89
(lp90
I4
aI4
aI0
aI0
aI0
aF28.1081
aF0.0
aF0.0
aI0
aI0
aI0
aI0
aI0
aF0.0
aF0.2
aF0.8
aF0.2
asS's_peoc_no_percentage'
p91
(lp92
I0
aI500
aI0
aI0
aI0
aF641.8919
aF0.0003
aF0.2071
aF24.076923076923077
aF4.20402822030041
aF0.6141
aF0.0
aF52.0
aI0
aI0
aI0
aI0
asS's_fuh_30_numerator'
p93
(lp94
I2
aI500
aI0
aI0
aI1
aF1236.4865
aF0.0007
aF0.1624
aI0
aI0
aI0
aI0
aI0
aF0.0
aF0.0
aF1.0
aF0.0
asS's_sub_1_denominator'
p95
(lp96
I2
aI500
aI0
aI0
aI1
aF1540.5405
aF0.0007
aF0.1353
aI0
aI0
aI0
aI0
aI0
aF0.0
aF0.0
aF1.0
aF0.0
asS's_hbips_6_measure_description'
p97
(lp98
I2
aI500
aI0
aI0
aI0
aF15108.1081
aF0.0
aF0.0
aI0
aI0
aI0
aI0
aI0
aF0.093
aF0.1163
aF0.0
aF1.0
asS's_fuh_7_denominator'
p99
(lp100
I2
aI500
aI0
aI0
aI1
aF1344.5946
aF0.0007
aF0.1513
aI0
aI0
aI0
aI0
aI0
aF0.0
aF0.0
aF1.0
aF0.0
asS's_hbips_6_overall_num'
p101
(lp102
I2
aI500
aI0
aI0
aI1
aF1587.8378
aF0.0006
aF0.1188
aI0
aI0
aI0
aI0
aI0
aF0.0
aF0.0
aF1.0
aF0.0
asS's_sub_1_percentage'
p103
(lp104
I0
aI500
aI0
aI0
aI0
aF702.7027
aF0.0
aF0.0
aF87.25
aF1.6981323964497042
aF0.1077
aF56.0
aF99.0
aI0
aI0
aI0
aI0
asS's_hie_yes_percent'
p105
(lp106
I0
aI500
aI0
aI0
aI0
aF689.1892
aF0.0001
aF0.098
aF35.69230769230769
aF3.8517296313154303
aF0.3965
aF0.0
aF71.0
aI0
aI0
aI0
aI0
asS's_hcp_percentage'
p107
(lp108
I0
aI500
aI0
aI0
aI0
aF702.7027
aF0.0
aF0.0
aF85.6923076923077
aF0.9870846609012289
aF0.0836
aF63.0
aF97.0
aI0
aI0
aI0
aI0
asS's_hbips_7_overall_den'
p109
(lp110
I2
aI500
aI0
aI0
aI1
aF1587.8378
aF0.0006
aF0.1188
aI0
aI0
aI0
aI0
aI0
aF0.0
aF0.0
aF1.0
aF0.0
asS's_ehr_paper_count'
p111
(lp112
I1
aI4
aI0
aI0
aI0
aF4.3784
aF0.0617
aF0.3188
aF18.0
aF6.286157259899865
aF0.9692
aF1.0
aF81.0
aI0
aI0
aI0
aI0
asS's_hcp_numerator'
p113
(lp114
I2
aI500
aI0
aI0
aI1
aF1932.4324
aF0.0006
aF0.0977
aI0
aI0
aI0
aI0
aI0
aF0.0
aF0.0
aF1.0
aF0.0
asS's_fuh_measure_description'
p115
(lp116
I2
aI500
aI0
aI0
aI0
aF47081.0811
aF0.0
aF0.0
aI0
aI0
aI0
aI0
aI0
aF0.1418
aF0.194
aF0.0448
aF0.9552
asS's_tob_1_denominator'
p117
(lp118
I2
aI500
aI0
aI0
aI1
aF1547.2973
aF0.0006
aF0.128
aI0
aI0
aI0
aI0
aI0
aF0.0
aF0.0
aF1.0
aF0.0
asS's_ehr_non_certified_percentage'
p119
(lp120
I0
aI500
aI0
aI0
aI0
aF385.1351
aF0.0002
aF0.2689
aF3.519230769230769
aF0.622404130632681
aF1.6166
aF0.0
aF33.0
aI0
aI0
aI0
aI0
asS's_peoc_yes_count'
p121
(lp122
I1
aI4
aI0
aI0
aI0
aF4.7568
aF0.0533
aF0.2727
aF23.0
aF9.451375455166136
aF0.9274
aF2.0
aF89.0
aI0
aI0
aI0
aI0
asS's_imm_2_numerator'
p123
(lp124
I2
aI500
aI0
aI0
aI1
aF1432.4324
aF0.0008
aF0.1509
aI0
aI0
aI0
aI0
aI0
aF0.0
aF0.0
aF1.0
aF0.0
asS's_hbips_6_overall_percentage_of_total'
p125
(lp126
I0
aI500
aI0
aI0
aI0
aF702.7027
aF0.0
aF0.0
aF87.67307692307692
aF1.972426888939463
aF0.1155
aF37.0
aF99.0
aI0
aI0
aI0
aI0
asS's_hbips_7_overall_num'
p127
(lp128
I2
aI500
aI0
aI0
aI1
aF1581.0811
aF0.0006
aF0.1194
aI0
aI0
aI0
aI0
aI0
aF0.0
aF0.0
aF1.0
aF0.0
asS'start_date'
p129
(lp130
I4
aI4
aI0
aI0
aI0
aF28.1081
aF0.0
aF0.0
aI0
aI0
aI0
aI0
aI0
aF0.0
aF0.2
aF0.8
aF0.2
asS's_hbips_5_overall_den'
p131
(lp132
I2
aI500
aI0
aI0
aI1
aF1128.3784
aF0.0009
aF0.2056
aI0
aI0
aI0
aI0
aI0
aF0.0
aF0.0
aF1.0
aF0.0
asS's_imm_2_measure_description'
p133
(lp134
I2
aI500
aI0
aI0
aI0
aF7729.7297
aF0.0
aF0.0
aI0
aI0
aI0
aI0
aI0
aF0.0455
aF0.0455
aF0.0
aF1.0
asS's_hie_no_count'
p135
(lp136
I1
aI4
aI0
aI0
aI0
aF4.5405
aF0.0592
aF0.3012
aF19.0
aF6.415132851615841
aF0.9176
aF2.0
aF83.0
aI0
aI0
aI0
aI0
asS's_peoc_yes_percentage'
p137
(lp138
I0
aI500
aI0
aI0
aI0
aF743.2432
aF0.0002
aF0.151
aF75.92307692307692
aF4.20402822030041
aF0.1947
aF48.0
aF100.0
aI0
aI0
aI0
aI0
asS's_hbips_5_measure_description'
p139
(lp140
I2
aI500
aI0
aI0
aI0
aF30918.9189
aF0.0
aF0.0
aI0
aI0
aI0
aI0
aI0
aF0.0909
aF0.0909
aF0.0
aF1.0
asS's_fuh_30_denominator'
p141
(lp142
I2
aI500
aI0
aI0
aI1
aF1344.5946
aF0.0007
aF0.1513
aI0
aI0
aI0
aI0
aI0
aF0.0
aF0.0
aF1.0
aF0.0
asS's_tob_2_numerator'
p143
(lp144
I2
aI500
aI0
aI0
aI1
aF1344.5946
aF0.0008
aF0.1678
aI0
aI0
aI0
aI0
aI0
aF0.0
aF0.0
aF1.0
aF0.0
asS's_ehr_non_certified_count'
p145
(lp146
I1
aI4
aI0
aI0
aI0
aF2.8108
aF0.0
aF0.0
aF0.0
aF0.016919378698224852
aF1.2506
aF0.0
aF4.0
aI0
aI0
aI0
aI0
asS's_hie_measure_description'
p147
(lp148
I2
aI500
aI0
aI0
aI0
aF18270.2703
aF0.0
aF0.0
aI0
aI0
aI0
aI0
aI0
aF0.0962
aF0.0962
aF0.0
aF1.0
as.