(dp0
S'hcp_footnote'
p1
(lp2
I1
aI4
aI0
aI0
aI0
aF295.9059
aF0.1237
aF0.1839
aF0.0
aF0.0005360981884576662
aF4.7931
aF0.0
aF7.0
aI0
aI0
aI0
aI0
asS'hbips_6_overall_num'
p3
(lp4
I2
aI500
aI0
aI0
aI1
aF30717.6471
aF0.0039
aF0.4372
aI0
aI0
aI0
aI0
aI0
aF0.0056
aF0.0056
aF0.9278
aF0.0722
asS'hbips_6_overall_percentage_of_total'
p5
(lp6
I2
aI500
aI0
aI0
aI0
aF60900.0
aF0.0022
aF0.1648
aI0
aI0
aI0
aI0
aI0
aF0.0032
aF0.3144
aF0.6473
aF0.3527
asS'ehr_use_measure_description'
p7
(lp8
I2
aI500
aI0
aI0
aI0
aF328800.0
aF0.0
aF0.0
aI0
aI0
aI0
aI0
aI0
aF0.1471
aF0.1471
aF0.0
aF1.0
asS'hbips_3_overall_den'
p9
(lp10
I2
aI500
aI0
aI0
aI1
aF42882.3529
aF0.0023
aF0.2408
aI0
aI0
aI0
aI0
aI0
aF0.0021
aF0.0021
aF0.9733
aF0.0267
asS'hbips_5_measure_description'
p11
(lp12
I2
aI500
aI0
aI0
aI0
aF851011.7647
aF0.0
aF0.0
aI0
aI0
aI0
aI0
aI0
aF0.0909
aF0.0909
aF0.0
aF1.0
asS'hbips_3_overall_num'
p13
(lp14
I2
aI500
aI0
aI0
aI1
aF31576.4706
aF0.0094
aF0.6657
aI0
aI0
aI0
aI0
aI0
aF0.0028
aF0.1721
aF0.7943
aF0.2057
asS'hbips_7_overall_footnote'
p15
(lp16
I1
aI4
aI0
aI0
aI0
aF303.6706
aF0.0547
aF0.1192
aF0.0
aF0.00021589076479998684
aF7.8354
aF0.0
aF7.0
aI0
aI0
aI0
aI0
asS'hcp_percentage'
p17
(lp18
I2
aI500
aI0
aI0
aI0
aF26600.0
aF0.0132
aF0.9351
aI0
aI0
aI0
aI0
aI0
aF0.0212
aF0.0212
aF0.724
aF0.276
asS'hbips_7_overall_percentage_of_total'
p19
(lp20
I2
aI500
aI0
aI0
aI0
aF60470.5882
aF0.0025
aF0.1799
aI0
aI0
aI0
aI0
aI0
aF0.004
aF0.3159
aF0.6363
aF0.3637
asS'imm_2_percentage'
p21
(lp22
I2
aI500
aI0
aI0
aI0
aF62523.5294
aF0.0056
aF0.2586
aI0
aI0
aI0
aI0
aI0
aF0.009
aF0.3003
aF0.5913
aF0.4087
asS'imm_2_denominator'
p23
(lp24
I2
aI500
aI0
aI0
aI1
aF33494.1176
aF0.0116
aF0.6947
aI0
aI0
aI0
aI0
aI0
aF0.0169
aF0.0169
aF0.7808
aF0.2192
asS'tob_1_denominator'
p25
(lp26
I2
aI500
aI0
aI0
aI1
aF32082.3529
aF0.0071
aF0.5668
aI0
aI0
aI0
aI0
aI0
aF0.0106
aF0.0106
aF0.8618
aF0.1382
asS'hbips_6_overall_footnote'
p27
(lp28
I1
aI4
aI0
aI0
aI0
aF304.8
aF0.0443
aF0.1068
aF0.0
aF0.00021336651366031815
aF8.322
aF0.0
aF7.0
aI0
aI0
aI0
aI0
asS'tob_2_2a_measure_desc'
p29
(lp30
I2
aI500
aI0
aI0
aI0
aF464188.2353
aF0.0
aF0.0
aI0
aI0
aI0
aI0
aI0
aF0.125
aF0.1667
aF0.0
aF1.0
asS'hbips_3_overall_footnote'
p31
(lp32
I1
aI4
aI0
aI0
aI0
aF304.5176
aF0.0469
aF0.11
aF0.0
aF0.0004909405148731973
aF6.8696
aF0.0
aF7.0
aI0
aI0
aI0
aI0
asS'hospital_name'
p33
(lp34
I2
aI500
aI0
aI0
aI0
aF274517.6471
aF0.1392
aF0.2939
aI0
aI0
aI0
aI0
aI0
aF0.1
aF0.1057
aF0.0001
aF0.9999
asS'hbips_7_overall_num'
p35
(lp36
I2
aI500
aI0
aI0
aI1
aF30917.6471
aF0.0048
aF0.4863
aI0
aI0
aI0
aI0
aI0
aF0.007
aF0.007
aF0.9085
aF0.0915
asS'imm_2_numerator'
p37
(lp38
I2
aI500
aI0
aI0
aI1
aF32088.2353
aF0.0122
aF0.7435
aI0
aI0
aI0
aI0
aI0
aF0.0176
aF0.0176
aF0.7712
aF0.2288
asS'hbips_5_overall_footnote'
p39
(lp40
I1
aI4
aI0
aI0
aI0
aF176.8941
aF0.5511
aF0.6493
aF0.0
aF0.0011587021663951491
aF1.655
aF0.0
aF7.0
aI0
aI0
aI0
aI0
asS'hbips_2_overall_den'
p41
(lp42
I2
aI500
aI0
aI0
aI1
aF42988.2353
aF0.0022
aF0.2376
aI0
aI0
aI0
aI0
aI0
aF0.0021
aF0.0021
aF0.9733
aF0.0267
asS'hbips_5_overall_percentage_of_total'
p43
(lp44
I2
aI500
aI0
aI0
aI0
aF97223.5294
aF0.0233
aF0.3397
aI0
aI0
aI0
aI0
aI0
aF0.0568
aF0.1421
aF0.1761
aF0.8239
asS'tob_2_footnote'
p45
(lp46
I1
aI4
aI0
aI0
aI0
aF273.6
aF0.2939
aF0.3066
aF0.0
aF0.001134343908094731
aF3.4328
aF0.0
aF7.0
aI0
aI0
aI0
aI0
asS'hbips_2_measure_description'
p47
(lp48
I2
aI500
aI0
aI0
aI0
aF299788.2353
aF0.0
aF0.0
aI0
aI0
aI0
aI0
aI0
aF0.0968
aF0.129
aF0.0
aF1.0
asS'ehr_use_response'
p49
(lp50
I2
aI500
aI0
aI0
aI0
aF203376.4706
aF0.0152
aF0.1311
aI0
aI0
aI0
aI0
aI0
aF0.1226
aF0.1237
aF0.0
aF1.0
asS'fuh_7_numerator'
p51
(lp52
I2
aI500
aI0
aI0
aI1
aF52300.0
aF0.0505
aF0.9293
aI0
aI0
aI0
aI0
aI0
aF0.0562
aF0.0562
aF0.2689
aF0.7311
asS'hbips_3_measure_description'
p53
(lp54
I2
aI500
aI0
aI0
aI0
aF174070.5882
aF0.0
aF0.0
aI0
aI0
aI0
aI0
aI0
aF0.1111
aF0.1111
aF0.0
aF1.0
asS'tob_2_2a_denominator'
p55
(lp56
I2
aI500
aI0
aI0
aI1
aF41976.4706
aF0.0278
aF0.8585
aI0
aI0
aI0
aI0
aI0
aF0.0356
aF0.0356
aF0.5373
aF0.4627
asS'state'
p57
(lp58
I2
aI2
aI0
aI0
aI0
aF77.3647
aF0.0
aF0.0
aI0
aI0
aI0
aI0
aI0
aF0.0
aF0.0
aF0.0
aF1.0
asS'tob_2_numerator'
p59
(lp60
I2
aI500
aI0
aI0
aI1
aF39735.2941
aF0.0295
aF0.9344
aI0
aI0
aI0
aI0
aI0
aF0.0376
aF0.0376
aF0.5112
aF0.4888
asS'hcp_measure_description'
p61
(lp62
I2
aI500
aI0
aI0
aI0
aF406164.7059
aF0.0
aF0.0
aI0
aI0
aI0
aI0
aI0
aF0.0714
aF0.0714
aF0.0
aF1.0
asS'sub_1_numerator'
p63
(lp64
I2
aI500
aI0
aI0
aI1
aF32370.5882
aF0.0093
aF0.6433
aI0
aI0
aI0
aI0
aI0
aF0.0136
aF0.0136
aF0.8228
aF0.1772
asS'country_name'
p65
(lp66
I2
aI500
aI0
aI0
aI0
aF74470.5882
aF0.0145
aF0.3496
aI0
aI0
aI0
aI0
aI0
aF0.022
aF0.0225
aF0.0
aF1.0
asS'sub_1_measure_description'
p67
(lp68
I2
aI500
aI0
aI0
aI0
aF203082.3529
aF0.0
aF0.0
aI0
aI0
aI0
aI0
aI0
aF0.0952
aF0.0952
aF0.0
aF1.0
asS'tob_2_2a__denominator'
p69
(lp70
I2
aI500
aI0
aI0
aI1
aF54005.8824
aF0.0415
aF0.8155
aI0
aI0
aI0
aI0
aI0
aF0.0488
aF0.0488
aF0.3656
aF0.6344
asS'start_date'
p71
(lp72
I4
aI4
aI0
aI0
aI0
aF773.6471
aF0.0
aF0.0
aI0
aI0
aI0
aI0
aI0
aF0.0
aF0.2
aF0.8
aF0.2
asS'hbips_3_overall_rate_per_1000'
p73
(lp74
I2
aI500
aI0
aI0
aI0
aF28170.5882
aF0.0087
aF0.7141
aI0
aI0
aI0
aI0
aI0
aF0.0073
aF0.2007
aF0.7116
aF0.2884
asS'zip_code'
p75
(lp76
I1
aI4
aI0
aI0
aI0
aF379.1059
aF0.0246
aF0.064
aF47561.0
aF464652.61112436064
aF0.5811
aF623.0
aF99801.0
aI0
aI0
aI0
aI0
asS'hie_response'
p77
(lp78
I2
aI500
aI0
aI0
aI0
aF23988.2353
aF0.0029
aF0.4861
aI0
aI0
aI0
aI0
aI0
aF0.0044
aF0.0044
aF0.0
aF1.0
asS'fuh_30_numerator'
p79
(lp80
I2
aI500
aI0
aI0
aI1
aF40270.5882
aF0.0346
aF0.9985
aI0
aI0
aI0
aI0
aI0
aF0.0432
aF0.0432
aF0.4379
aF0.5621
asS'fuh_7_percentage'
p81
(lp82
I2
aI500
aI0
aI0
aI0
aF78535.2941
aF0.0208
aF0.3973
aI0
aI0
aI0
aI0
aI0
aF0.0375
aF0.2088
aF0.3418
aF0.6582
asS'hcp_denominator'
p83
(lp84
I2
aI500
aI0
aI0
aI1
aF31270.5882
aF0.0125
aF0.7736
aI0
aI0
aI0
aI0
aI0
aF0.0181
aF0.0181
aF0.7652
aF0.2348
asS'fuh_measure_description'
p85
(lp86
I2
aI500
aI0
aI0
aI0
aF1295858.8235
aF0.0
aF0.0
aI0
aI0
aI0
aI0
aI0
aF0.1418
aF0.194
aF0.0448
aF0.9552
asS'end_date'
p87
(lp88
I4
aI4
aI0
aI0
aI0
aF773.6471
aF0.0
aF0.0
aI0
aI0
aI0
aI0
aI0
aF0.0
aF0.2
aF0.8
aF0.2
asS'city'
p89
(lp90
I2
aI500
aI0
aI0
aI0
aF84858.8235
aF0.0133
aF0.2935
aI0
aI0
aI0
aI0
aI0
aF0.0279
aF0.0281
aF0.0
aF1.0
asS'hbips_5_overall_num'
p91
(lp92
I2
aI500
aI0
aI0
aI1
aF75764.7059
aF0.0612
aF0.706
aI0
aI0
aI0
aI0
aI0
aF0.0681
aF0.0681
aF0.1148
aF0.8852
asS'ehr_use_footnote'
p93
(lp94
I1
aI4
aI0
aI0
aI0
aF306.9176
aF0.0244
aF0.0787
aF0.0
aF0.00016467497850353492
aF9.5044
aF0.0
aF5.0
aI0
aI0
aI0
aI0
asS'tob_2_percentage'
p95
(lp96
I2
aI500
aI0
aI0
aI0
aF68652.9412
aF0.013
aF0.3586
aI0
aI0
aI0
aI0
aI0
aF0.0218
aF0.26
aF0.4789
aF0.5211
asS'tob_1_footnote'
p97
(lp98
I1
aI4
aI0
aI0
aI0
aF301.2706
aF0.0766
aF0.1421
aF0.0
aF0.0006078989097121965
aF5.9119
aF0.0
aF7.0
aI0
aI0
aI0
aI0
asS'hbips_6_measure_description'
p99
(lp100
I2
aI500
aI0
aI0
aI0
aF415835.2941
aF0.0
aF0.0
aI0
aI0
aI0
aI0
aI0
aF0.093
aF0.1163
aF0.0
aF1.0
asS'imm_2_footnote'
p101
(lp102
I1
aI4
aI0
aI0
aI0
aF295.9059
aF0.1237
aF0.1839
aF0.0
aF0.0005660867241083959
aF5.322
aF0.0
aF7.0
aI0
aI0
aI0
aI0
asS'fuh_30_percentage'
p103
(lp104
I2
aI500
aI0
aI0
aI0
aF70200.0
aF0.0145
aF0.3706
aI0
aI0
aI0
aI0
aI0
aF0.0248
aF0.2507
aF0.4517
aF0.5483
asS'tob_2a_numerator'
p105
(lp106
I2
aI500
aI0
aI0
aI1
aF49552.9412
aF0.047
aF0.9461
aI0
aI0
aI0
aI0
aI0
aF0.0532
aF0.0532
aF0.3086
aF0.6914
asS'tob_2a_footnote'
p107
(lp108
I1
aI4
aI0
aI0
aI0
aF246.2118
aF0.4461
aF0.4197
aF0.0
aF0.0011405438073810717
aF2.6547
aF0.0
aF7.0
aI0
aI0
aI0
aI0
asS'fuh_7_denominator'
p109
(lp110
I2
aI500
aI0
aI0
aI1
aF55547.0588
aF0.0464
aF0.8382
aI0
aI0
aI0
aI0
aI0
aF0.0529
aF0.0529
aF0.3117
aF0.6883
asS'hcp_numerator'
p111
(lp112
I2
aI500
aI0
aI0
aI1
aF30400.0
aF0.0127
aF0.8016
aI0
aI0
aI0
aI0
aI0
aF0.0186
aF0.0186
aF0.7585
aF0.2415
asS'sub_1_percentage'
p113
(lp114
I2
aI500
aI0
aI0
aI0
aF62576.4706
aF0.0044
aF0.2297
aI0
aI0
aI0
aI0
aI0
aF0.0071
aF0.302
aF0.6134
aF0.3866
asS'flu_season_start_date'
p115
(lp116
I4
aI4
aI0
aI0
aI0
aF773.6471
aF0.0
aF0.0
aI0
aI0
aI0
aI0
aI0
aF0.0
aF0.2
aF0.8
aF0.2
asS'address'
p117
(lp118
I2
aI500
aI0
aI0
aI0
aF198288.2353
aF0.0597
aF0.2664
aI0
aI0
aI0
aI0
aI0
aF0.1818
aF0.1863
aF0.1906
aF0.8094
asS'fuh_measure_start_date'
p119
(lp120
I4
aI4
aI0
aI0
aI0
aF773.6471
aF0.0
aF0.0
aI0
aI0
aI0
aI0
aI0
aF0.0
aF0.2
aF0.8
aF0.2
asS'sub_1_footnote'
p121
(lp122
I1
aI4
aI0
aI0
aI0
aF298.8706
aF0.098
aF0.162
aF0.0
aF0.000628951515307599
aF5.5539
aF0.0
aF7.0
aI0
aI0
aI0
aI0
asS'hie_measure_description'
p123
(lp124
I2
aI500
aI0
aI0
aI0
aF502870.5882
aF0.0
aF0.0
aI0
aI0
aI0
aI0
aI0
aF0.0962
aF0.0962
aF0.0
aF1.0
asS'fuh_measure_end_date'
p125
(lp126
I4
aI4
aI0
aI0
aI0
aF773.6471
aF0.0
aF0.0
aI0
aI0
aI0
aI0
aI0
aF0.0
aF0.2
aF0.8
aF0.2
asS'tob_1_percentage'
p127
(lp128
I2
aI500
aI0
aI0
aI0
aF62764.7059
aF0.0035
aF0.2038
aI0
aI0
aI0
aI0
aI0
aF0.0054
aF0.3027
aF0.6321
aF0.3679
asS'peoc_measure_description'
p129
(lp130
I2
aI500
aI0
aI0
aI0
aF386823.5294
aF0.0
aF0.0
aI0
aI0
aI0
aI0
aI0
aF0.125
aF0.125
aF0.0
aF1.0
asS'flu_season_end_date'
p131
(lp132
I4
aI4
aI0
aI0
aI0
aF773.6471
aF0.0
aF0.0
aI0
aI0
aI0
aI0
aI0
aF0.0
aF0.2
aF0.8
aF0.2
asS'hbips_7_overall_den'
p133
(lp134
I2
aI500
aI0
aI0
aI1
aF31758.8235
aF0.0047
aF0.4659
aI0
aI0
aI0
aI0
aI0
aF0.0069
aF0.0069
aF0.9109
aF0.0891
asS'sub_1_denominator'
p135
(lp136
I2
aI500
aI0
aI0
aI1
aF33058.8235
aF0.009
aF0.62
aI0
aI0
aI0
aI0
aI0
aF0.0133
aF0.0133
aF0.8265
aF0.1735
asS'hbips_6_overall_den'
p137
(lp138
I2
aI500
aI0
aI0
aI1
aF31288.2353
aF0.0038
aF0.4237
aI0
aI0
aI0
aI0
aI0
aF0.0055
aF0.0055
aF0.9291
aF0.0709
asS'tob_1_numerator'
p139
(lp140
I2
aI500
aI0
aI0
aI1
aF31747.0588
aF0.0072
aF0.5768
aI0
aI0
aI0
aI0
aI0
aF0.0107
aF0.0107
aF0.8603
aF0.1397
asS'imm_2_measure_description'
p141
(lp142
I2
aI500
aI0
aI0
aI0
aF212752.9412
aF0.0
aF0.0
aI0
aI0
aI0
aI0
aI0
aF0.0455
aF0.0455
aF0.0
aF1.0
asS'tob_1_measure_description'
p143
(lp144
I2
aI500
aI0
aI0
aI0
aF203082.3529
aF0.0
aF0.0
aI0
aI0
aI0
aI0
aI0
aF0.0952
aF0.0952
aF0.0
aF1.0
asS'hbips_5_overall_den'
p145
(lp146
I2
aI500
aI0
aI0
aI1
aF76252.9412
aF0.06
aF0.6947
aI0
aI0
aI0
aI0
aI0
aF0.0677
aF0.0677
aF0.1205
aF0.8795
asS'provider_number'
p147
(lp148
I0
aI500
aI1
aI0
aI1
aF56529.4118
aF0.0003
aF0.0618
aF261367.01824817518
aF12970967.367795246
aF0.5587
aF10007.0
aF670093.0
aI0
aI0
aI0
aI0
asS'hbips_2_overall_num'
p149
(lp150
I2
aI500
aI0
aI0
aI1
aF37500.0
aF0.0081
aF0.519
aI0
aI0
aI0
aI0
aI0
aF0.0024
aF0.1842
aF0.7876
aF0.2124
asS'fuh_7_footnote'
p151
(lp152
I1
aI4
aI0
aI0
aI0
aF238.8706
aF0.4762
aF0.447
aF0.0
aF0.0007957080557575316
aF2.2173
aF0.0
aF5.0
aI0
aI0
aI0
aI0
asS'fuh_30_footnote'
p153
(lp154
I1
aI4
aI0
aI0
aI0
aF267.6706
aF0.3322
aF0.3332
aF0.0
aF0.0007887294556024987
aF2.9069
aF0.0
aF5.0
aI0
aI0
aI0
aI0
asS'hbips_2_overall_footnote'
p155
(lp156
I1
aI4
aI0
aI0
aI0
aF305.0824
aF0.0416
aF0.1035
aF0.0
aF0.0004209546617704404
aF7.3136
aF0.0
aF7.0
aI0
aI0
aI0
aI0
asS'hbips_2_overall_rate_per_1000'
p157
(lp158
I2
aI500
aI0
aI0
aI0
aF32370.5882
aF0.007
aF0.5594
aI0
aI0
aI0
aI0
aI0
aF0.0056
aF0.2204
aF0.712
aF0.288
asS'peoc_assessed_footnote'
p159
(lp160
I1
aI4
aI0
aI0
aI0
aF306.9176
aF0.0244
aF0.0787
aF0.0
aF0.00016467497850353492
aF9.5044
aF0.0
aF5.0
aI0
aI0
aI0
aI0
asS'hie_footnote'
p161
(lp162
I1
aI4
aI0
aI0
aI0
aF306.9176
aF0.0244
aF0.0787
aF0.0
aF0.00016467497850353492
aF9.5044
aF0.0
aF5.0
aI0
aI0
aI0
aI0
asS'hbips_7_measure_description'
p163
(lp164
I2
aI500
aI0
aI0
aI0
aF938047.0588
aF0.0
aF0.0
aI0
aI0
aI0
aI0
aI0
aF0.134
aF0.1443
aF0.0
aF1.0
asS'fuh_30_denominator'
p165
(lp166
I2
aI500
aI0
aI0
aI1
aF42376.4706
aF0.033
aF0.9274
aI0
aI0
aI0
aI0
aI0
aF0.0411
aF0.0411
aF0.4659
aF0.5341
asS'peoc_assessed_response'
p167
(lp168
I2
aI500
aI0
aI0
aI0
aF27811.7647
aF0.0026
aF0.3984
aI0
aI0
aI0
aI0
aI0
aF0.0038
aF0.0038
aF0.0
aF1.0
asS'tob_2a_percentage'
p169
(lp170
I2
aI500
aI0
aI0
aI0
aF75200.0
aF0.0207
aF0.4137
aI0
aI0
aI0
aI0
aI0
aF0.035
aF0.2222
aF0.3573
aF0.6427
as.