(dp0
S'hcp_footnote'
p1
(lp2
F0.25
aF0.008
aF0.0
aFnan
aF0.0
aF0.0002
aF0.2245
aF0.2832
aF0.0
aF0.0
aF0.295
aF0.0
aF0.0
aF0.0
aF0.0
aF0.0
aF0.0
aF0.0
aF0.0
aF0.0
asS'hbips_6_overall_num'
p3
(lp4
F0.0
aF0.02
aF0.0
aFnan
aF1.0
aF0.0004
aF0.0481
aF0.2675
aF0.0018
aF0.0
aF0.0653
aF0.0
aF0.0126
aF0.0
aF0.0
aF0.0
aF0.0
aF0.0
aF0.0
aF0.0
asS'hbips_6_overall_percentage_of_total'
p5
(lp6
F0.0
aF0.01
aF0.0
aFnan
aF0.0
aF0.0001
aF0.0
aF0.0
aF0.0
aF0.0
aF0.0175
aF0.0
aF0.0
aF0.0
aF0.0
aF0.0
aF0.0
aF0.0
aF0.0
aF0.0
asS'ehr_use_measure_description'
p7
(lp8
F0.5
aF1.0
aF0.0
aFnan
aF0.0
aF0.2537
aF0.0
aF0.0
aF0.0
aF0.0
aF0.0
aF0.0
aF0.0
aF0.8091
aF0.6385
aF0.0
aF1.0
aF0.0
aF0.0
aF0.0
asS'hbips_3_overall_den'
p9
(lp10
F0.0
aF0.02
aF0.0
aFnan
aF1.0
aF0.0006
aF0.1027
aF0.268
aF0.0616
aF0.0435
aF0.1164
aF0.0
aF0.8352
aF0.0
aF0.0
aF0.0
aF0.0
aF0.0
aF0.0
aF0.0
asS'hbips_7_overall_footnote'
p11
(lp12
F0.25
aF0.008
aF0.0
aFnan
aF0.0
aF0.0002
aF0.0993
aF0.1836
aF0.0
aF0.0
aF0.4823
aF0.0
aF0.0
aF0.0
aF0.0
aF0.0
aF0.0
aF0.0
aF0.0
aF0.0
asS'hbips_5_measure_description'
p13
(lp14
F0.5
aF1.0
aF0.0
aFnan
aF0.0
aF0.6567
aF0.0
aF0.0
aF0.0
aF0.0
aF0.0
aF0.0
aF0.0
aF0.5
aF0.3945
aF0.0
aF1.0
aF0.0
aF0.0
aF0.0
asS'hbips_3_overall_num'
p15
(lp16
F0.0
aF0.02
aF0.0
aFnan
aF1.0
aF0.0002
aF0.1185
aF0.7736
aF0.0007
aF0.0004
aF1.0
aF0.0
aF0.1817
aF0.0
aF0.0
aF0.0
aF0.0
aF0.0
aF0.0
aF0.0
asS'hcp_denominator'
p17
(lp18
F0.0
aF0.02
aF0.0
aFnan
aF1.0
aF0.0004
aF0.0887
aF0.4251
aF0.0013
aF0.0001
aF0.2059
aF0.0
aF0.0501
aF0.0
aF0.0
aF0.0
aF0.0
aF0.0
aF0.0
aF0.0
asS'hcp_percentage'
p19
(lp20
F0.0
aF0.01
aF0.0
aFnan
aF0.0
aF0.0002
aF0.0613
aF0.3089
aF0.0003
aF0.0
aF0.0221
aF0.0
aF0.0001
aF0.0
aF0.0
aF0.0
aF0.0
aF0.0
aF0.0
aF0.0
asS'hbips_7_overall_percentage_of_total'
p21
(lp22
F0.0
aF0.01
aF0.0
aFnan
aF0.0
aF0.0001
aF0.0
aF0.0
aF0.0
aF0.0
aF0.0218
aF0.0
aF0.0
aF0.0
aF0.0
aF0.0
aF0.0
aF0.0
aF0.0
aF0.0
asS'imm_2_percentage'
p23
(lp24
F0.0
aF0.01
aF0.0
aFnan
aF0.0
aF0.0001
aF0.0
aF0.0
aF0.0
aF0.0
aF0.0292
aF0.0
aF0.0
aF0.0
aF0.0
aF0.0
aF0.0
aF0.0
aF0.0
aF0.0
asS'imm_2_denominator'
p25
(lp26
F0.0
aF0.02
aF0.0
aFnan
aF1.0
aF0.0004
aF0.0622
aF0.3264
aF0.0011
aF0.0
aF0.1679
aF0.0
aF0.0451
aF0.0
aF0.0
aF0.0
aF0.0
aF0.0
aF0.0
aF0.0
asS'tob_1_denominator'
p27
(lp28
F0.0
aF0.02
aF0.0
aFnan
aF1.0
aF0.0004
aF0.0432
aF0.2597
aF0.0017
aF0.0
aF0.1029
aF0.0
aF0.0369
aF0.0
aF0.0
aF0.0
aF0.0
aF0.0
aF0.0
aF0.0
asS'hbips_6_overall_footnote'
p29
(lp30
F0.25
aF0.008
aF0.0
aFnan
aF0.0
aF0.0002
aF0.0804
aF0.1645
aF0.0
aF0.0
aF0.5122
aF0.0
aF0.0
aF0.0
aF0.0
aF0.0
aF0.0
aF0.0
aF0.0
aF0.0
asS'tob_2_2a_measure_desc'
p31
(lp32
F0.5
aF1.0
aF0.0
aFnan
aF0.0
aF0.3582
aF0.0
aF0.0
aF0.0
aF0.0
aF0.0
aF0.0
aF0.0
aF0.6876
aF0.7235
aF0.0
aF1.0
aF0.0
aF1.0
aF0.0
asS'hbips_5_overall_percentage_of_total'
p33
(lp34
F0.0
aF0.01
aF0.0
aFnan
aF0.0
aF0.0001
aF0.0
aF0.0
aF0.0
aF0.0
aF0.0854
aF0.0
aF0.0
aF0.0
aF0.0
aF0.0
aF0.0
aF0.0
aF0.0
aF0.0
asS'hospital_name'
p35
(lp36
F0.5
aF1.0
aF0.0
aFnan
aF0.0
aF0.2118
aF0.2526
aF0.4526
aF0.0
aF0.0
aF0.0
aF0.0
aF0.0
aF0.5501
aF0.4588
aF0.0001
aF0.9999
aF0.0015
aF0.0048
aF0.0619
asS'hbips_7_overall_num'
p37
(lp38
F0.0
aF0.02
aF0.0
aFnan
aF1.0
aF0.0004
aF0.0526
aF0.2835
aF0.0017
aF0.0
aF0.0654
aF0.0
aF0.0105
aF0.0
aF0.0
aF0.0
aF0.0
aF0.0
aF0.0
aF0.0
asS'imm_2_numerator'
p39
(lp40
F0.0
aF0.02
aF0.0
aFnan
aF1.0
aF0.0004
aF0.0789
aF0.3878
aF0.0008
aF0.0
aF0.0778
aF0.0
aF0.0093
aF0.0
aF0.0
aF0.0
aF0.0
aF0.0
aF0.0
aF0.0
asS'hbips_5_overall_footnote'
p41
(lp42
F0.25
aF0.008
aF0.0
aFnan
aF0.0
aF0.0001
aF1.0
aF1.0
aF0.0
aF0.0
aF0.1019
aF0.0
aF0.0
aF0.0
aF0.0
aF0.0
aF0.0
aF0.0
aF0.0
aF0.0
asS'hbips_2_overall_den'
p43
(lp44
F0.0
aF0.02
aF0.0
aFnan
aF1.0
aF0.0006
aF0.0987
aF0.262
aF0.063
aF0.047
aF0.1182
aF0.0
aF0.8352
aF0.0
aF0.0
aF0.0
aF0.0
aF0.0
aF0.0
aF0.0
asS'imm_2_measure_description'
p45
(lp46
F0.5
aF1.0
aF0.0
aFnan
aF0.0
aF0.1642
aF0.0
aF0.0
aF0.0
aF0.0
aF0.0
aF0.0
aF0.0
aF0.2503
aF0.1975
aF0.0
aF1.0
aF0.0
aF0.0
aF0.0
asS'tob_2_footnote'
p47
(lp48
F0.25
aF0.008
aF0.0
aFnan
aF0.0
aF0.0002
aF0.5333
aF0.4722
aF0.0
aF0.0
aF0.2113
aF0.0
aF0.0
aF0.0
aF0.0
aF0.0
aF0.0
aF0.0
aF0.0
aF0.0
asS'hbips_2_measure_description'
p49
(lp50
F0.5
aF1.0
aF0.0
aFnan
aF0.0
aF0.2313
aF0.0
aF0.0
aF0.0
aF0.0
aF0.0
aF0.0
aF0.0
aF0.5325
aF0.5599
aF0.0
aF1.0
aF0.0
aF0.0
aF1.0
asS'ehr_use_response'
p51
(lp52
F0.5
aF1.0
aF0.0
aFnan
aF0.0
aF0.1569
aF0.0276
aF0.2019
aF0.0
aF0.0
aF0.0
aF0.0
aF0.0
aF0.6744
aF0.5369
aF0.0
aF1.0
aF0.0
aF0.0
aF0.0341
asS'fuh_7_numerator'
p53
(lp54
F0.0
aF0.02
aF0.0
aFnan
aF1.0
aF0.0003
aF0.0579
aF0.495
aF0.0001
aF0.0
aF0.0773
aF0.0
aF0.0006
aF0.0
aF0.0
aF0.0
aF0.0
aF0.0
aF0.0
aF0.0
asS'hbips_3_measure_description'
p55
(lp56
F0.5
aF1.0
aF0.0
aFnan
aF0.0
aF0.1343
aF0.0
aF0.0
aF0.0
aF0.0
aF0.0
aF0.0
aF0.0
aF0.6111
aF0.4822
aF0.0
aF1.0
aF0.0
aF0.0
aF0.0
asS'tob_2_2a_denominator'
p57
(lp58
F0.0
aF0.02
aF0.0
aFnan
aF1.0
aF0.0004
aF0.1069
aF0.4754
aF0.0007
aF0.0
aF0.1232
aF0.0
aF0.0191
aF0.0
aF0.0
aF0.0
aF0.0
aF0.0
aF0.0
aF0.0
asS'state'
p59
(lp60
F0.5
aF0.004
aF1.0
aFnan
aF0.0
aF0.0001
aF0.0
aF0.0
aF0.0
aF0.0
aF0.0
aF0.0
aF0.0
aF0.0
aF0.0
aF0.0
aF1.0
aF0.0
aF0.0
aF0.0
asS'tob_2_numerator'
p61
(lp62
F0.0
aF0.02
aF0.0
aFnan
aF1.0
aF0.0003
aF0.1058
aF0.5215
aF0.0005
aF0.0
aF0.0794
aF0.0
aF0.0028
aF0.0
aF0.0
aF0.0
aF0.0
aF0.0
aF0.0
aF0.0
asS'sub_1_numerator'
p63
(lp64
F0.0
aF0.02
aF0.0
aFnan
aF1.0
aF0.0004
aF0.0613
aF0.3196
aF0.0014
aF0.0
aF0.0575
aF0.0
aF0.0078
aF0.0
aF0.0
aF0.0
aF0.0
aF0.0
aF0.0
aF0.0
asS'hcp_measure_description'
p65
(lp66
F0.5
aF1.0
aF0.0
aFnan
aF0.0
aF0.3134
aF0.0
aF0.0
aF0.0
aF0.0
aF0.0
aF0.0
aF0.0
aF0.3927
aF0.3099
aF0.0
aF1.0
aF0.0
aF0.0
aF0.0
asS'sub_1_measure_description'
p67
(lp68
F0.5
aF1.0
aF0.0
aFnan
aF0.0
aF0.1567
aF0.0
aF0.0
aF0.0
aF0.0
aF0.0
aF0.0
aF0.0
aF0.5237
aF0.4132
aF0.0
aF1.0
aF0.0
aF0.0
aF0.0
asS'tob_2_2a__denominator'
p69
(lp70
F0.0
aF0.02
aF0.0
aFnan
aF1.0
aF0.0003
aF0.1432
aF0.5909
aF0.0007
aF0.0
aF0.1338
aF0.0
aF0.0191
aF0.0
aF0.0
aF0.0
aF0.0
aF0.0
aF0.0
aF0.0
asS'start_date'
p71
(lp72
F1.0
aF0.008
aF0.0
aFnan
aF0.0
aF0.0006
aF0.0
aF0.0
aF0.0
aF0.0
aF0.0
aF0.0
aF0.0
aF0.0
aF0.8681
aF1.0
aF0.2
aF1.0
aF0.0
aF0.0
asS'hbips_3_overall_rate_per_1000'
p73
(lp74
F0.5
aF1.0
aF0.0
aFnan
aF0.0
aF0.0198
aF0.0078
aF0.8545
aF0.0
aF0.0
aF0.0
aF0.0
aF0.0
aF0.0
aF0.9197
aF0.9851
aF0.2119
aF0.0
aF0.0
aF0.0
asS'zip_code'
p75
(lp76
F0.25
aF0.008
aF0.0
aFnan
aF0.0
aF0.0003
aF0.0446
aF0.0986
aF0.182
aF0.0358
aF0.0358
aF0.0623
aF0.1489
aF0.0
aF0.0
aF0.0
aF0.0
aF0.0
aF0.0
aF0.0
asS'hie_response'
p77
(lp78
F0.5
aF1.0
aF0.0
aFnan
aF0.0
aF0.0185
aF0.0053
aF0.7487
aF0.0
aF0.0
aF0.0
aF0.0
aF0.0
aF0.0242
aF0.0191
aF0.0
aF1.0
aF0.0
aF0.0
aF0.0
asS'fuh_7_footnote'
p79
(lp80
F0.25
aF0.008
aF0.0
aFnan
aF0.0
aF0.0002
aF0.8641
aF0.6884
aF0.0
aF0.0
aF0.1365
aF0.0
aF0.0
aF0.0
aF0.0
aF0.0
aF0.0
aF0.0
aF0.0
aF0.0
asS'fuh_7_percentage'
p81
(lp82
F0.0
aF0.01
aF0.0
aFnan
aF0.0
aF0.0001
aF0.0
aF0.0
aF0.0
aF0.0
aF0.2432
aF0.0
aF0.0
aF0.0
aF0.0
aF0.0
aF0.0
aF0.0
aF0.0
aF0.0
asS'fuh_measure_description'
p83
(lp84
F0.5
aF1.0
aF0.0
aFnan
aF0.0
aF1.0
aF0.0
aF0.0
aF0.0
aF0.0
aF0.0
aF0.0
aF0.0
aF0.78
aF0.842
aF0.056
aF0.9552
aF0.0
aF0.7163
aF0.6935
asS'end_date'
p85
(lp86
F1.0
aF0.008
aF0.0
aFnan
aF0.0
aF0.0006
aF0.0
aF0.0
aF0.0
aF0.0
aF0.0
aF0.0
aF0.0
aF0.0
aF0.8681
aF1.0
aF0.2
aF1.0
aF0.0
aF0.0
asS'city'
p87
(lp88
F0.5
aF1.0
aF0.0
aFnan
aF0.0
aF0.0655
aF0.0241
aF0.452
aF0.0
aF0.0
aF0.0
aF0.0
aF0.0
aF0.1535
aF0.122
aF0.0
aF1.0
aF0.0
aF0.0
aF0.0031
asS'hbips_5_overall_num'
p89
(lp90
F0.0
aF0.02
aF0.0
aFnan
aF1.0
aF0.0002
aF0.0539
aF0.5852
aF0.0001
aF0.0
aF0.1572
aF0.0
aF0.001
aF0.0
aF0.0
aF0.0
aF0.0
aF0.0
aF0.0
aF0.0
asS'ehr_use_footnote'
p91
(lp92
F0.25
aF0.008
aF0.0
aFnan
aF0.0
aF0.0002
aF0.0443
aF0.1212
aF0.0
aF0.0
aF0.585
aF0.0
aF0.0
aF0.0
aF0.0
aF0.0
aF0.0
aF0.0
aF0.0
aF0.0
asS'tob_2_percentage'
p93
(lp94
F0.0
aF0.01
aF0.0
aFnan
aF0.0
aF0.0001
aF0.0
aF0.0
aF0.0
aF0.0
aF0.0473
aF0.0
aF0.0
aF0.0
aF0.0
aF0.0
aF0.0
aF0.0
aF0.0
aF0.0
asS'tob_1_footnote'
p95
(lp96
F0.25
aF0.008
aF0.0
aFnan
aF0.0
aF0.0002
aF0.139
aF0.2189
aF0.0
aF0.0
aF0.3639
aF0.0
aF0.0
aF0.0
aF0.0
aF0.0
aF0.0
aF0.0
aF0.0
aF0.0
asS'hbips_6_measure_description'
p97
(lp98
F0.5
aF1.0
aF0.0
aFnan
aF0.0
aF0.3209
aF0.0
aF0.0
aF0.0
aF0.0
aF0.0
aF0.0
aF0.0
aF0.5116
aF0.5048
aF0.0
aF1.0
aF0.0
aF0.0
aF0.7214
asS'fuh_30_percentage'
p99
(lp100
F0.0
aF0.01
aF0.0
aFnan
aF0.0
aF0.0001
aF0.0
aF0.0
aF0.0
aF0.0
aF0.0558
aF0.0
aF0.0
aF0.0
aF0.0
aF0.0
aF0.0
aF0.0
aF0.0
aF0.0
asS'country_name'
p101
(lp102
F0.5
aF1.0
aF0.0
aFnan
aF0.0
aF0.0575
aF0.0263
aF0.5384
aF0.0
aF0.0
aF0.0
aF0.0
aF0.0
aF0.121
aF0.0977
aF0.0
aF1.0
aF0.0
aF0.0
aF0.0155
asS'fuh_7_denominator'
p103
(lp104
F0.0
aF0.02
aF0.0
aFnan
aF1.0
aF0.0003
aF0.1259
aF0.6125
aF0.0004
aF0.0
aF0.0724
aF0.0
aF0.0014
aF0.0
aF0.0
aF0.0
aF0.0
aF0.0
aF0.0
aF0.0
asS'hcp_numerator'
p105
(lp106
F0.0
aF0.02
aF0.0
aFnan
aF1.0
aF0.0004
aF0.0826
aF0.4252
aF0.001
aF0.0
aF0.2292
aF0.0
aF0.0442
aF0.0
aF0.0
aF0.0
aF0.0
aF0.0
aF0.0
aF0.0
asS'sub_1_percentage'
p107
(lp108
F0.0
aF0.01
aF0.0
aFnan
aF0.0
aF0.0001
aF0.0
aF0.0
aF0.0
aF0.0
aF0.0208
aF0.0
aF0.0
aF0.0
aF0.0
aF0.0
aF0.0
aF0.0
aF0.0
aF0.0
asS'flu_season_start_date'
p109
(lp110
F1.0
aF0.008
aF0.0
aFnan
aF0.0
aF0.0006
aF0.0
aF0.0
aF0.0
aF0.0
aF0.0
aF0.0
aF0.0
aF0.0
aF0.8681
aF1.0
aF0.2
aF1.0
aF0.0
aF0.0
asS'fuh_30_numerator'
p111
(lp112
F0.0
aF0.02
aF0.0
aFnan
aF1.0
aF0.0003
aF0.0664
aF0.4651
aF0.0002
aF0.0
aF0.0677
aF0.0
aF0.0008
aF0.0
aF0.0
aF0.0
aF0.0
aF0.0
aF0.0
aF0.0
asS'fuh_measure_start_date'
p113
(lp114
F1.0
aF0.008
aF0.0
aFnan
aF0.0
aF0.0006
aF0.0
aF0.0
aF0.0
aF0.0
aF0.0
aF0.0
aF0.0
aF0.0
aF0.8681
aF1.0
aF0.2
aF1.0
aF0.0
aF0.0
asS'tob_2a_footnote'
p115
(lp116
F0.25
aF0.008
aF0.0
aFnan
aF0.0
aF0.0002
aF0.8095
aF0.6464
aF0.0
aF0.0
aF0.1634
aF0.0
aF0.0
aF0.0
aF0.0
aF0.0
aF0.0
aF0.0
aF0.0
aF0.0
asS'hie_measure_description'
p117
(lp118
F0.5
aF1.0
aF0.0
aFnan
aF0.0
aF0.3881
aF0.0
aF0.0
aF0.0
aF0.0
aF0.0
aF0.0
aF0.0
aF0.5292
aF0.4175
aF0.0
aF1.0
aF0.0
aF0.0
aF0.0
asS'fuh_measure_end_date'
p119
(lp120
F1.0
aF0.008
aF0.0
aFnan
aF0.0
aF0.0006
aF0.0
aF0.0
aF0.0
aF0.0
aF0.0
aF0.0
aF0.0
aF0.0
aF0.8681
aF1.0
aF0.2
aF1.0
aF0.0
aF0.0
asS'tob_1_percentage'
p121
(lp122
F0.0
aF0.01
aF0.0
aFnan
aF0.0
aF0.0001
aF0.0
aF0.0
aF0.0
aF0.0
aF0.0157
aF0.0
aF0.0
aF0.0
aF0.0
aF0.0
aF0.0
aF0.0
aF0.0
aF0.0
asS'flu_season_end_date'
p123
(lp124
F1.0
aF0.008
aF0.0
aFnan
aF0.0
aF0.0006
aF0.0
aF0.0
aF0.0
aF0.0
aF0.0
aF0.0
aF0.0
aF0.0
aF0.8681
aF1.0
aF0.2
aF1.0
aF0.0
aF0.0
asS'hbips_7_overall_den'
p125
(lp126
F0.0
aF0.02
aF0.0
aFnan
aF1.0
aF0.0004
aF0.0474
aF0.2609
aF0.0021
aF0.0001
aF0.1289
aF0.0
aF0.0616
aF0.0
aF0.0
aF0.0
aF0.0
aF0.0
aF0.0
aF0.0
asS'peoc_measure_description'
p127
(lp128
F0.5
aF1.0
aF0.0
aFnan
aF0.0
aF0.2985
aF0.0
aF0.0
aF0.0
aF0.0
aF0.0
aF0.0
aF0.0
aF0.6876
aF0.5425
aF0.0
aF1.0
aF0.0
aF0.0
aF0.0
asS'sub_1_denominator'
p129
(lp130
F0.0
aF0.02
aF0.0
aFnan
aF1.0
aF0.0004
aF0.0494
aF0.2797
aF0.0016
aF0.0
aF0.0595
aF0.0
aF0.0083
aF0.0
aF0.0
aF0.0
aF0.0
aF0.0
aF0.0
aF0.0
asS'tob_2a_numerator'
p131
(lp132
F0.0
aF0.02
aF0.0
aFnan
aF1.0
aF0.0003
aF0.0976
aF0.6094
aF0.0002
aF0.0
aF0.1109
aF0.0
aF0.0028
aF0.0
aF0.0
aF0.0
aF0.0
aF0.0
aF0.0
aF0.0
asS'tob_1_numerator'
p133
(lp134
F0.0
aF0.02
aF0.0
aFnan
aF1.0
aF0.0004
aF0.047
aF0.2743
aF0.0015
aF0.0
aF0.107
aF0.0
aF0.0367
aF0.0
aF0.0
aF0.0
aF0.0
aF0.0
aF0.0
aF0.0
asS'imm_2_footnote'
p135
(lp136
F0.25
aF0.008
aF0.0
aFnan
aF0.0
aF0.0002
aF0.2245
aF0.2832
aF0.0
aF0.0
aF0.3276
aF0.0
aF0.0
aF0.0
aF0.0
aF0.0
aF0.0
aF0.0
aF0.0
aF0.0
asS'tob_1_measure_description'
p137
(lp138
F0.5
aF1.0
aF0.0
aFnan
aF0.0
aF0.1567
aF0.0
aF0.0
aF0.0
aF0.0
aF0.0
aF0.0
aF0.0
aF0.5237
aF0.4132
aF0.0
aF1.0
aF0.0
aF0.0
aF0.0
asS'hbips_5_overall_den'
p139
(lp140
F0.0
aF0.02
aF0.0
aFnan
aF1.0
aF0.0002
aF0.0657
aF0.6244
aF0.0001
aF0.0
aF0.2004
aF0.0
aF0.0033
aF0.0
aF0.0
aF0.0
aF0.0
aF0.0
aF0.0
aF0.0
asS'provider_number'
p141
(lp142
F0.0
aF1.0
aF1.0
aFnan
aF1.0
aF0.0436
aF0.0005
aF0.0952
aF1.0
aF1.0
aF0.0344
aF1.0
aF1.0
aF0.0
aF0.0
aF0.0
aF0.0
aF0.0
aF0.0
aF0.0
asS'hbips_2_overall_num'
p143
(lp144
F0.0
aF0.02
aF0.0
aFnan
aF1.0
aF0.0003
aF0.131
aF0.7268
aF0.001
aF0.0005
aF0.7263
aF0.0
aF0.1817
aF0.0
aF0.0
aF0.0
aF0.0
aF0.0
aF0.0
aF0.0
asS'hbips_3_overall_footnote'
p145
(lp146
F0.25
aF0.008
aF0.0
aFnan
aF0.0
aF0.0002
aF0.0851
aF0.1694
aF0.0
aF0.0
aF0.4228
aF0.0
aF0.0
aF0.0
aF0.0
aF0.0
aF0.0
aF0.0
aF0.0
aF0.0
asS'hbips_6_overall_den'
p147
(lp148
F0.0
aF0.02
aF0.0
aFnan
aF1.0
aF0.0005
aF0.0437
aF0.25
aF0.0021
aF0.0001
aF0.1284
aF0.0
aF0.0616
aF0.0
aF0.0
aF0.0
aF0.0
aF0.0
aF0.0
aF0.0
asS'fuh_30_footnote'
p149
(lp150
F0.25
aF0.008
aF0.0
aFnan
aF0.0
aF0.0002
aF0.6028
aF0.5132
aF0.0
aF0.0
aF0.1789
aF0.0
aF0.0
aF0.0
aF0.0
aF0.0
aF0.0
aF0.0
aF0.0
aF0.0
asS'hbips_2_overall_footnote'
p151
(lp152
F0.25
aF0.008
aF0.0
aFnan
aF0.0
aF0.0002
aF0.0755
aF0.1594
aF0.0
aF0.0
aF0.4502
aF0.0
aF0.0
aF0.0
aF0.0
aF0.0
aF0.0
aF0.0
aF0.0
aF0.0
asS'sub_1_footnote'
p153
(lp154
F0.25
aF0.008
aF0.0
aFnan
aF0.0
aF0.0002
aF0.1778
aF0.2495
aF0.0
aF0.0
aF0.3418
aF0.0
aF0.0
aF0.0
aF0.0
aF0.0
aF0.0
aF0.0
aF0.0
aF0.0
asS'hbips_2_overall_rate_per_1000'
p155
(lp156
F0.5
aF1.0
aF0.0
aFnan
aF0.0
aF0.0233
aF0.0065
aF0.6624
aF0.0
aF0.0
aF0.0
aF0.0
aF0.0
aF0.0
aF1.0
aF0.962
aF0.2304
aF0.0
aF0.0
aF0.0
asS'peoc_assessed_footnote'
p157
(lp158
F0.25
aF0.008
aF0.0
aFnan
aF0.0
aF0.0002
aF0.0443
aF0.1212
aF0.0
aF0.0
aF0.585
aF0.0
aF0.0
aF0.0
aF0.0
aF0.0
aF0.0
aF0.0
aF0.0
aF0.0
asS'hie_footnote'
p159
(lp160
F0.25
aF0.008
aF0.0
aFnan
aF0.0
aF0.0002
aF0.0443
aF0.1212
aF0.0
aF0.0
aF0.585
aF0.0
aF0.0
aF0.0
aF0.0
aF0.0
aF0.0
aF0.0
aF0.0
aF0.0
asS'hbips_7_measure_description'
p161
(lp162
F0.5
aF1.0
aF0.0
aFnan
aF0.0
aF0.7239
aF0.0
aF0.0
aF0.0
aF0.0
aF0.0
aF0.0
aF0.0
aF0.7371
aF0.6263
aF0.0
aF1.0
aF0.0
aF0.0
aF0.3189
asS'fuh_30_denominator'
p163
(lp164
F0.0
aF0.02
aF0.0
aFnan
aF1.0
aF0.0003
aF0.0965
aF0.5059
aF0.0004
aF0.0
aF0.0673
aF0.0
aF0.0014
aF0.0
aF0.0
aF0.0
aF0.0
aF0.0
aF0.0
aF0.0
asS'peoc_assessed_response'
p165
(lp166
F0.5
aF1.0
aF0.0
aFnan
aF0.0
aF0.0215
aF0.0047
aF0.6136
aF0.0
aF0.0
aF0.0
aF0.0
aF0.0
aF0.0209
aF0.0165
aF0.0
aF1.0
aF0.0
aF0.0
aF0.0
asS'address'
p167
(lp168
F0.5
aF1.0
aF0.0
aFnan
aF0.0
aF0.153
aF0.1083
aF0.4103
aF0.0
aF0.0
aF0.0
aF0.0
aF0.0
aF1.0
aF0.8086
aF0.2382
aF0.8094
aF0.0005
aF0.0048
aF0.0186
asS'tob_2a_percentage'
p169
(lp170
F0.0
aF0.01
aF0.0
aFnan
aF0.0
aF0.0001
aF0.0
aF0.0
aF0.0
aF0.0
aF0.1078
aF0.0
aF0.0
aF0.0
aF0.0
aF0.0
aF0.0
aF0.0
aF0.0
aF0.0
as.